Archive member included to satisfy reference by file (symbol)

/usr/share/gcc-arm-none-eabi-10-2020-q4-major/bin/../lib/gcc/arm-none-eabi/10.2.1/../../../../arm-none-eabi/lib/thumb/v7e-m+fp/hard/libc.a(lib_a-exit.o)
                              /usr/share/gcc-arm-none-eabi-10-2020-q4-major/bin/../lib/gcc/arm-none-eabi/10.2.1/../../../../arm-none-eabi/lib/thumb/v7e-m+fp/hard/crt0.o (exit)
/usr/share/gcc-arm-none-eabi-10-2020-q4-major/bin/../lib/gcc/arm-none-eabi/10.2.1/../../../../arm-none-eabi/lib/thumb/v7e-m+fp/hard/libc.a(lib_a-impure.o)
                              /usr/share/gcc-arm-none-eabi-10-2020-q4-major/bin/../lib/gcc/arm-none-eabi/10.2.1/../../../../arm-none-eabi/lib/thumb/v7e-m+fp/hard/libc.a(lib_a-exit.o) (_global_impure_ptr)
/usr/share/gcc-arm-none-eabi-10-2020-q4-major/bin/../lib/gcc/arm-none-eabi/10.2.1/../../../../arm-none-eabi/lib/thumb/v7e-m+fp/hard/libc.a(lib_a-init.o)
                              /usr/share/gcc-arm-none-eabi-10-2020-q4-major/bin/../lib/gcc/arm-none-eabi/10.2.1/../../../../arm-none-eabi/lib/thumb/v7e-m+fp/hard/crt0.o (__libc_init_array)
/usr/share/gcc-arm-none-eabi-10-2020-q4-major/bin/../lib/gcc/arm-none-eabi/10.2.1/../../../../arm-none-eabi/lib/thumb/v7e-m+fp/hard/libc.a(lib_a-memset.o)
                              /usr/share/gcc-arm-none-eabi-10-2020-q4-major/bin/../lib/gcc/arm-none-eabi/10.2.1/../../../../arm-none-eabi/lib/thumb/v7e-m+fp/hard/crt0.o (memset)
/usr/share/gcc-arm-none-eabi-10-2020-q4-major/bin/../lib/gcc/arm-none-eabi/10.2.1/../../../../arm-none-eabi/lib/thumb/v7e-m+fp/hard/libc.a(lib_a-__call_atexit.o)
                              /usr/share/gcc-arm-none-eabi-10-2020-q4-major/bin/../lib/gcc/arm-none-eabi/10.2.1/../../../../arm-none-eabi/lib/thumb/v7e-m+fp/hard/libc.a(lib_a-exit.o) (__call_exitprocs)
/usr/share/gcc-arm-none-eabi-10-2020-q4-major/bin/../lib/gcc/arm-none-eabi/10.2.1/../../../../arm-none-eabi/lib/thumb/v7e-m+fp/hard/libc.a(lib_a-atexit.o)
                              /usr/share/gcc-arm-none-eabi-10-2020-q4-major/bin/../lib/gcc/arm-none-eabi/10.2.1/../../../../arm-none-eabi/lib/thumb/v7e-m+fp/hard/libc.a(lib_a-__call_atexit.o) (atexit)
/usr/share/gcc-arm-none-eabi-10-2020-q4-major/bin/../lib/gcc/arm-none-eabi/10.2.1/../../../../arm-none-eabi/lib/thumb/v7e-m+fp/hard/libc.a(lib_a-fini.o)
                              /usr/share/gcc-arm-none-eabi-10-2020-q4-major/bin/../lib/gcc/arm-none-eabi/10.2.1/../../../../arm-none-eabi/lib/thumb/v7e-m+fp/hard/libc.a(lib_a-__call_atexit.o) (__libc_fini_array)
/usr/share/gcc-arm-none-eabi-10-2020-q4-major/bin/../lib/gcc/arm-none-eabi/10.2.1/../../../../arm-none-eabi/lib/thumb/v7e-m+fp/hard/libc.a(lib_a-lock.o)
                              /usr/share/gcc-arm-none-eabi-10-2020-q4-major/bin/../lib/gcc/arm-none-eabi/10.2.1/../../../../arm-none-eabi/lib/thumb/v7e-m+fp/hard/libc.a(lib_a-__call_atexit.o) (__retarget_lock_acquire_recursive)
/usr/share/gcc-arm-none-eabi-10-2020-q4-major/bin/../lib/gcc/arm-none-eabi/10.2.1/../../../../arm-none-eabi/lib/thumb/v7e-m+fp/hard/libc.a(lib_a-__atexit.o)
                              /usr/share/gcc-arm-none-eabi-10-2020-q4-major/bin/../lib/gcc/arm-none-eabi/10.2.1/../../../../arm-none-eabi/lib/thumb/v7e-m+fp/hard/libc.a(lib_a-atexit.o) (__register_exitproc)
/usr/share/gcc-arm-none-eabi-10-2020-q4-major/bin/../lib/gcc/arm-none-eabi/10.2.1/../../../../arm-none-eabi/lib/thumb/v7e-m+fp/hard/libnosys.a(_exit.o)
                              /usr/share/gcc-arm-none-eabi-10-2020-q4-major/bin/../lib/gcc/arm-none-eabi/10.2.1/../../../../arm-none-eabi/lib/thumb/v7e-m+fp/hard/libc.a(lib_a-exit.o) (_exit)
/usr/share/gcc-arm-none-eabi-10-2020-q4-major/bin/../lib/gcc/arm-none-eabi/10.2.1/../../../../arm-none-eabi/lib/thumb/v7e-m+fp/hard/libc_nano.a(lib_a-memcmp.o)
                              _build/build-bm68rgb_custom_rev1_THusb/flash_nrf5x.o (memcmp)
/usr/share/gcc-arm-none-eabi-10-2020-q4-major/bin/../lib/gcc/arm-none-eabi/10.2.1/../../../../arm-none-eabi/lib/thumb/v7e-m+fp/hard/libc_nano.a(lib_a-memcpy-stub.o)
                              _build/build-bm68rgb_custom_rev1_THusb/dfu_ble_svc.o (memcpy)
/usr/share/gcc-arm-none-eabi-10-2020-q4-major/bin/../lib/gcc/arm-none-eabi/10.2.1/../../../../arm-none-eabi/lib/thumb/v7e-m+fp/hard/libc_nano.a(lib_a-memmove.o)
                              _build/build-bm68rgb_custom_rev1_THusb/msc_device.o (memmove)
/usr/share/gcc-arm-none-eabi-10-2020-q4-major/bin/../lib/gcc/arm-none-eabi/10.2.1/../../../../arm-none-eabi/lib/thumb/v7e-m+fp/hard/libc_nano.a(lib_a-strcat.o)
                              _build/build-bm68rgb_custom_rev1_THusb/ghostfat.o (strcat)
/usr/share/gcc-arm-none-eabi-10-2020-q4-major/bin/../lib/gcc/arm-none-eabi/10.2.1/../../../../arm-none-eabi/lib/thumb/v7e-m+fp/hard/libc_nano.a(lib_a-strlen.o)
                              _build/build-bm68rgb_custom_rev1_THusb/dfu_transport_ble.o (strlen)
/usr/share/gcc-arm-none-eabi-10-2020-q4-major/bin/../lib/gcc/arm-none-eabi/10.2.1/../../../../arm-none-eabi/lib/thumb/v7e-m+fp/hard/libc_nano.a(lib_a-utoa.o)
                              _build/build-bm68rgb_custom_rev1_THusb/ghostfat.o (utoa)
/usr/share/gcc-arm-none-eabi-10-2020-q4-major/bin/../lib/gcc/arm-none-eabi/10.2.1/thumb/v7e-m+fp/hard/libgcc.a(_aeabi_ldivmod.o)
                              _build/build-bm68rgb_custom_rev1_THusb/bootloader.o (__aeabi_ldivmod)
/usr/share/gcc-arm-none-eabi-10-2020-q4-major/bin/../lib/gcc/arm-none-eabi/10.2.1/thumb/v7e-m+fp/hard/libgcc.a(_aeabi_uldivmod.o)
                              _build/build-bm68rgb_custom_rev1_THusb/bootloader.o (__aeabi_uldivmod)
/usr/share/gcc-arm-none-eabi-10-2020-q4-major/bin/../lib/gcc/arm-none-eabi/10.2.1/thumb/v7e-m+fp/hard/libgcc.a(_udivmoddi4.o)
                              /usr/share/gcc-arm-none-eabi-10-2020-q4-major/bin/../lib/gcc/arm-none-eabi/10.2.1/thumb/v7e-m+fp/hard/libgcc.a(_aeabi_ldivmod.o) (__udivmoddi4)
/usr/share/gcc-arm-none-eabi-10-2020-q4-major/bin/../lib/gcc/arm-none-eabi/10.2.1/thumb/v7e-m+fp/hard/libgcc.a(_dvmd_tls.o)
                              /usr/share/gcc-arm-none-eabi-10-2020-q4-major/bin/../lib/gcc/arm-none-eabi/10.2.1/thumb/v7e-m+fp/hard/libgcc.a(_aeabi_ldivmod.o) (__aeabi_ldiv0)

Discarded input sections

 .text          0x0000000000000000        0x0 /usr/share/gcc-arm-none-eabi-10-2020-q4-major/bin/../lib/gcc/arm-none-eabi/10.2.1/thumb/v7e-m+fp/hard/crti.o
 .data          0x0000000000000000        0x0 /usr/share/gcc-arm-none-eabi-10-2020-q4-major/bin/../lib/gcc/arm-none-eabi/10.2.1/thumb/v7e-m+fp/hard/crti.o
 .bss           0x0000000000000000        0x0 /usr/share/gcc-arm-none-eabi-10-2020-q4-major/bin/../lib/gcc/arm-none-eabi/10.2.1/thumb/v7e-m+fp/hard/crti.o
 .data          0x0000000000000000        0x4 /usr/share/gcc-arm-none-eabi-10-2020-q4-major/bin/../lib/gcc/arm-none-eabi/10.2.1/thumb/v7e-m+fp/hard/crtbegin.o
 .rodata        0x0000000000000000       0x24 /usr/share/gcc-arm-none-eabi-10-2020-q4-major/bin/../lib/gcc/arm-none-eabi/10.2.1/thumb/v7e-m+fp/hard/crtbegin.o
 .data          0x0000000000000000        0x0 /usr/share/gcc-arm-none-eabi-10-2020-q4-major/bin/../lib/gcc/arm-none-eabi/10.2.1/../../../../arm-none-eabi/lib/thumb/v7e-m+fp/hard/crt0.o
 .bss           0x0000000000000000        0x0 /usr/share/gcc-arm-none-eabi-10-2020-q4-major/bin/../lib/gcc/arm-none-eabi/10.2.1/../../../../arm-none-eabi/lib/thumb/v7e-m+fp/hard/crt0.o
 .ARM.extab     0x0000000000000000        0x0 /usr/share/gcc-arm-none-eabi-10-2020-q4-major/bin/../lib/gcc/arm-none-eabi/10.2.1/../../../../arm-none-eabi/lib/thumb/v7e-m+fp/hard/crt0.o
 .text          0x0000000000000000        0x0 /usr/share/gcc-arm-none-eabi-10-2020-q4-major/bin/../lib/gcc/arm-none-eabi/10.2.1/../../../../arm-none-eabi/lib/thumb/v7e-m+fp/hard/libc.a(lib_a-exit.o)
 .data          0x0000000000000000        0x0 /usr/share/gcc-arm-none-eabi-10-2020-q4-major/bin/../lib/gcc/arm-none-eabi/10.2.1/../../../../arm-none-eabi/lib/thumb/v7e-m+fp/hard/libc.a(lib_a-exit.o)
 .bss           0x0000000000000000        0x0 /usr/share/gcc-arm-none-eabi-10-2020-q4-major/bin/../lib/gcc/arm-none-eabi/10.2.1/../../../../arm-none-eabi/lib/thumb/v7e-m+fp/hard/libc.a(lib_a-exit.o)
 .text          0x0000000000000000        0x0 /usr/share/gcc-arm-none-eabi-10-2020-q4-major/bin/../lib/gcc/arm-none-eabi/10.2.1/../../../../arm-none-eabi/lib/thumb/v7e-m+fp/hard/libc.a(lib_a-impure.o)
 .data          0x0000000000000000        0x0 /usr/share/gcc-arm-none-eabi-10-2020-q4-major/bin/../lib/gcc/arm-none-eabi/10.2.1/../../../../arm-none-eabi/lib/thumb/v7e-m+fp/hard/libc.a(lib_a-impure.o)
 .bss           0x0000000000000000        0x0 /usr/share/gcc-arm-none-eabi-10-2020-q4-major/bin/../lib/gcc/arm-none-eabi/10.2.1/../../../../arm-none-eabi/lib/thumb/v7e-m+fp/hard/libc.a(lib_a-impure.o)
 .data._impure_ptr
                0x0000000000000000        0x4 /usr/share/gcc-arm-none-eabi-10-2020-q4-major/bin/../lib/gcc/arm-none-eabi/10.2.1/../../../../arm-none-eabi/lib/thumb/v7e-m+fp/hard/libc.a(lib_a-impure.o)
 .text          0x0000000000000000        0x0 /usr/share/gcc-arm-none-eabi-10-2020-q4-major/bin/../lib/gcc/arm-none-eabi/10.2.1/../../../../arm-none-eabi/lib/thumb/v7e-m+fp/hard/libc.a(lib_a-init.o)
 .data          0x0000000000000000        0x0 /usr/share/gcc-arm-none-eabi-10-2020-q4-major/bin/../lib/gcc/arm-none-eabi/10.2.1/../../../../arm-none-eabi/lib/thumb/v7e-m+fp/hard/libc.a(lib_a-init.o)
 .bss           0x0000000000000000        0x0 /usr/share/gcc-arm-none-eabi-10-2020-q4-major/bin/../lib/gcc/arm-none-eabi/10.2.1/../../../../arm-none-eabi/lib/thumb/v7e-m+fp/hard/libc.a(lib_a-init.o)
 .text          0x0000000000000000        0x0 /usr/share/gcc-arm-none-eabi-10-2020-q4-major/bin/../lib/gcc/arm-none-eabi/10.2.1/../../../../arm-none-eabi/lib/thumb/v7e-m+fp/hard/libc.a(lib_a-memset.o)
 .data          0x0000000000000000        0x0 /usr/share/gcc-arm-none-eabi-10-2020-q4-major/bin/../lib/gcc/arm-none-eabi/10.2.1/../../../../arm-none-eabi/lib/thumb/v7e-m+fp/hard/libc.a(lib_a-memset.o)
 .bss           0x0000000000000000        0x0 /usr/share/gcc-arm-none-eabi-10-2020-q4-major/bin/../lib/gcc/arm-none-eabi/10.2.1/../../../../arm-none-eabi/lib/thumb/v7e-m+fp/hard/libc.a(lib_a-memset.o)
 .text          0x0000000000000000        0x0 /usr/share/gcc-arm-none-eabi-10-2020-q4-major/bin/../lib/gcc/arm-none-eabi/10.2.1/../../../../arm-none-eabi/lib/thumb/v7e-m+fp/hard/libc.a(lib_a-__call_atexit.o)
 .data          0x0000000000000000        0x0 /usr/share/gcc-arm-none-eabi-10-2020-q4-major/bin/../lib/gcc/arm-none-eabi/10.2.1/../../../../arm-none-eabi/lib/thumb/v7e-m+fp/hard/libc.a(lib_a-__call_atexit.o)
 .bss           0x0000000000000000        0x0 /usr/share/gcc-arm-none-eabi-10-2020-q4-major/bin/../lib/gcc/arm-none-eabi/10.2.1/../../../../arm-none-eabi/lib/thumb/v7e-m+fp/hard/libc.a(lib_a-__call_atexit.o)
 .text          0x0000000000000000        0x0 /usr/share/gcc-arm-none-eabi-10-2020-q4-major/bin/../lib/gcc/arm-none-eabi/10.2.1/../../../../arm-none-eabi/lib/thumb/v7e-m+fp/hard/libc.a(lib_a-atexit.o)
 .data          0x0000000000000000        0x0 /usr/share/gcc-arm-none-eabi-10-2020-q4-major/bin/../lib/gcc/arm-none-eabi/10.2.1/../../../../arm-none-eabi/lib/thumb/v7e-m+fp/hard/libc.a(lib_a-atexit.o)
 .bss           0x0000000000000000        0x0 /usr/share/gcc-arm-none-eabi-10-2020-q4-major/bin/../lib/gcc/arm-none-eabi/10.2.1/../../../../arm-none-eabi/lib/thumb/v7e-m+fp/hard/libc.a(lib_a-atexit.o)
 .text          0x0000000000000000        0x0 /usr/share/gcc-arm-none-eabi-10-2020-q4-major/bin/../lib/gcc/arm-none-eabi/10.2.1/../../../../arm-none-eabi/lib/thumb/v7e-m+fp/hard/libc.a(lib_a-fini.o)
 .data          0x0000000000000000        0x0 /usr/share/gcc-arm-none-eabi-10-2020-q4-major/bin/../lib/gcc/arm-none-eabi/10.2.1/../../../../arm-none-eabi/lib/thumb/v7e-m+fp/hard/libc.a(lib_a-fini.o)
 .bss           0x0000000000000000        0x0 /usr/share/gcc-arm-none-eabi-10-2020-q4-major/bin/../lib/gcc/arm-none-eabi/10.2.1/../../../../arm-none-eabi/lib/thumb/v7e-m+fp/hard/libc.a(lib_a-fini.o)
 .text          0x0000000000000000        0x0 /usr/share/gcc-arm-none-eabi-10-2020-q4-major/bin/../lib/gcc/arm-none-eabi/10.2.1/../../../../arm-none-eabi/lib/thumb/v7e-m+fp/hard/libc.a(lib_a-lock.o)
 .data          0x0000000000000000        0x0 /usr/share/gcc-arm-none-eabi-10-2020-q4-major/bin/../lib/gcc/arm-none-eabi/10.2.1/../../../../arm-none-eabi/lib/thumb/v7e-m+fp/hard/libc.a(lib_a-lock.o)
 .bss           0x0000000000000000        0x0 /usr/share/gcc-arm-none-eabi-10-2020-q4-major/bin/../lib/gcc/arm-none-eabi/10.2.1/../../../../arm-none-eabi/lib/thumb/v7e-m+fp/hard/libc.a(lib_a-lock.o)
 .text.__retarget_lock_init
                0x0000000000000000        0x4 /usr/share/gcc-arm-none-eabi-10-2020-q4-major/bin/../lib/gcc/arm-none-eabi/10.2.1/../../../../arm-none-eabi/lib/thumb/v7e-m+fp/hard/libc.a(lib_a-lock.o)
 .text.__retarget_lock_init_recursive
                0x0000000000000000        0x4 /usr/share/gcc-arm-none-eabi-10-2020-q4-major/bin/../lib/gcc/arm-none-eabi/10.2.1/../../../../arm-none-eabi/lib/thumb/v7e-m+fp/hard/libc.a(lib_a-lock.o)
 .text.__retarget_lock_close
                0x0000000000000000        0x4 /usr/share/gcc-arm-none-eabi-10-2020-q4-major/bin/../lib/gcc/arm-none-eabi/10.2.1/../../../../arm-none-eabi/lib/thumb/v7e-m+fp/hard/libc.a(lib_a-lock.o)
 .text.__retarget_lock_close_recursive
                0x0000000000000000        0x4 /usr/share/gcc-arm-none-eabi-10-2020-q4-major/bin/../lib/gcc/arm-none-eabi/10.2.1/../../../../arm-none-eabi/lib/thumb/v7e-m+fp/hard/libc.a(lib_a-lock.o)
 .text.__retarget_lock_acquire
                0x0000000000000000        0x4 /usr/share/gcc-arm-none-eabi-10-2020-q4-major/bin/../lib/gcc/arm-none-eabi/10.2.1/../../../../arm-none-eabi/lib/thumb/v7e-m+fp/hard/libc.a(lib_a-lock.o)
 .text.__retarget_lock_try_acquire
                0x0000000000000000        0x4 /usr/share/gcc-arm-none-eabi-10-2020-q4-major/bin/../lib/gcc/arm-none-eabi/10.2.1/../../../../arm-none-eabi/lib/thumb/v7e-m+fp/hard/libc.a(lib_a-lock.o)
 .text.__retarget_lock_try_acquire_recursive
                0x0000000000000000        0x4 /usr/share/gcc-arm-none-eabi-10-2020-q4-major/bin/../lib/gcc/arm-none-eabi/10.2.1/../../../../arm-none-eabi/lib/thumb/v7e-m+fp/hard/libc.a(lib_a-lock.o)
 .text.__retarget_lock_release
                0x0000000000000000        0x4 /usr/share/gcc-arm-none-eabi-10-2020-q4-major/bin/../lib/gcc/arm-none-eabi/10.2.1/../../../../arm-none-eabi/lib/thumb/v7e-m+fp/hard/libc.a(lib_a-lock.o)
 .bss.__lock___arc4random_mutex
                0x0000000000000000        0x1 /usr/share/gcc-arm-none-eabi-10-2020-q4-major/bin/../lib/gcc/arm-none-eabi/10.2.1/../../../../arm-none-eabi/lib/thumb/v7e-m+fp/hard/libc.a(lib_a-lock.o)
 .bss.__lock___at_quick_exit_mutex
                0x0000000000000000        0x1 /usr/share/gcc-arm-none-eabi-10-2020-q4-major/bin/../lib/gcc/arm-none-eabi/10.2.1/../../../../arm-none-eabi/lib/thumb/v7e-m+fp/hard/libc.a(lib_a-lock.o)
 .bss.__lock___dd_hash_mutex
                0x0000000000000000        0x1 /usr/share/gcc-arm-none-eabi-10-2020-q4-major/bin/../lib/gcc/arm-none-eabi/10.2.1/../../../../arm-none-eabi/lib/thumb/v7e-m+fp/hard/libc.a(lib_a-lock.o)
 .bss.__lock___env_recursive_mutex
                0x0000000000000000        0x1 /usr/share/gcc-arm-none-eabi-10-2020-q4-major/bin/../lib/gcc/arm-none-eabi/10.2.1/../../../../arm-none-eabi/lib/thumb/v7e-m+fp/hard/libc.a(lib_a-lock.o)
 .bss.__lock___malloc_recursive_mutex
                0x0000000000000000        0x1 /usr/share/gcc-arm-none-eabi-10-2020-q4-major/bin/../lib/gcc/arm-none-eabi/10.2.1/../../../../arm-none-eabi/lib/thumb/v7e-m+fp/hard/libc.a(lib_a-lock.o)
 .bss.__lock___sfp_recursive_mutex
                0x0000000000000000        0x1 /usr/share/gcc-arm-none-eabi-10-2020-q4-major/bin/../lib/gcc/arm-none-eabi/10.2.1/../../../../arm-none-eabi/lib/thumb/v7e-m+fp/hard/libc.a(lib_a-lock.o)
 .bss.__lock___sinit_recursive_mutex
                0x0000000000000000        0x1 /usr/share/gcc-arm-none-eabi-10-2020-q4-major/bin/../lib/gcc/arm-none-eabi/10.2.1/../../../../arm-none-eabi/lib/thumb/v7e-m+fp/hard/libc.a(lib_a-lock.o)
 .bss.__lock___tz_mutex
                0x0000000000000000        0x1 /usr/share/gcc-arm-none-eabi-10-2020-q4-major/bin/../lib/gcc/arm-none-eabi/10.2.1/../../../../arm-none-eabi/lib/thumb/v7e-m+fp/hard/libc.a(lib_a-lock.o)
 .text          0x0000000000000000        0x0 /usr/share/gcc-arm-none-eabi-10-2020-q4-major/bin/../lib/gcc/arm-none-eabi/10.2.1/../../../../arm-none-eabi/lib/thumb/v7e-m+fp/hard/libc.a(lib_a-__atexit.o)
 .data          0x0000000000000000        0x0 /usr/share/gcc-arm-none-eabi-10-2020-q4-major/bin/../lib/gcc/arm-none-eabi/10.2.1/../../../../arm-none-eabi/lib/thumb/v7e-m+fp/hard/libc.a(lib_a-__atexit.o)
 .bss           0x0000000000000000        0x0 /usr/share/gcc-arm-none-eabi-10-2020-q4-major/bin/../lib/gcc/arm-none-eabi/10.2.1/../../../../arm-none-eabi/lib/thumb/v7e-m+fp/hard/libc.a(lib_a-__atexit.o)
 .text          0x0000000000000000        0x0 /usr/share/gcc-arm-none-eabi-10-2020-q4-major/bin/../lib/gcc/arm-none-eabi/10.2.1/../../../../arm-none-eabi/lib/thumb/v7e-m+fp/hard/libnosys.a(_exit.o)
 .data          0x0000000000000000        0x0 /usr/share/gcc-arm-none-eabi-10-2020-q4-major/bin/../lib/gcc/arm-none-eabi/10.2.1/../../../../arm-none-eabi/lib/thumb/v7e-m+fp/hard/libnosys.a(_exit.o)
 .bss           0x0000000000000000        0x0 /usr/share/gcc-arm-none-eabi-10-2020-q4-major/bin/../lib/gcc/arm-none-eabi/10.2.1/../../../../arm-none-eabi/lib/thumb/v7e-m+fp/hard/libnosys.a(_exit.o)
 .text          0x0000000000000000        0x0 _build/build-bm68rgb_custom_rev1_THusb/dfu_ble_svc.o
 .data          0x0000000000000000        0x0 _build/build-bm68rgb_custom_rev1_THusb/dfu_ble_svc.o
 .bss           0x0000000000000000        0x0 _build/build-bm68rgb_custom_rev1_THusb/dfu_ble_svc.o
 .text          0x0000000000000000        0x0 _build/build-bm68rgb_custom_rev1_THusb/dfu_init.o
 .data          0x0000000000000000        0x0 _build/build-bm68rgb_custom_rev1_THusb/dfu_init.o
 .bss           0x0000000000000000        0x0 _build/build-bm68rgb_custom_rev1_THusb/dfu_init.o
 .text          0x0000000000000000        0x0 _build/build-bm68rgb_custom_rev1_THusb/flash_nrf5x.o
 .data          0x0000000000000000        0x0 _build/build-bm68rgb_custom_rev1_THusb/flash_nrf5x.o
 .bss           0x0000000000000000        0x0 _build/build-bm68rgb_custom_rev1_THusb/flash_nrf5x.o
 .text          0x0000000000000000        0x0 _build/build-bm68rgb_custom_rev1_THusb/main.o
 .data          0x0000000000000000        0x0 _build/build-bm68rgb_custom_rev1_THusb/main.o
 .bss           0x0000000000000000        0x0 _build/build-bm68rgb_custom_rev1_THusb/main.o
 .text.assert_nrf_callback
                0x0000000000000000       0x10 _build/build-bm68rgb_custom_rev1_THusb/main.o
 .text          0x0000000000000000        0x0 _build/build-bm68rgb_custom_rev1_THusb/boards.o
 .data          0x0000000000000000        0x0 _build/build-bm68rgb_custom_rev1_THusb/boards.o
 .bss           0x0000000000000000        0x0 _build/build-bm68rgb_custom_rev1_THusb/boards.o
 .text          0x0000000000000000        0x0 _build/build-bm68rgb_custom_rev1_THusb/nrfx_power.o
 .data          0x0000000000000000        0x0 _build/build-bm68rgb_custom_rev1_THusb/nrfx_power.o
 .bss           0x0000000000000000        0x0 _build/build-bm68rgb_custom_rev1_THusb/nrfx_power.o
 .text.nrfx_power_pof_handler_get
                0x0000000000000000        0xc _build/build-bm68rgb_custom_rev1_THusb/nrfx_power.o
 .text.nrfx_power_usb_handler_get
                0x0000000000000000        0xc _build/build-bm68rgb_custom_rev1_THusb/nrfx_power.o
 .text.nrfx_power_uninit
                0x0000000000000000       0x30 _build/build-bm68rgb_custom_rev1_THusb/nrfx_power.o
 .text.nrfx_power_pof_init
                0x0000000000000000        0xc _build/build-bm68rgb_custom_rev1_THusb/nrfx_power.o
 .text.nrfx_power_pof_enable
                0x0000000000000000       0x40 _build/build-bm68rgb_custom_rev1_THusb/nrfx_power.o
 .text.nrfx_power_pof_disable
                0x0000000000000000       0x1c _build/build-bm68rgb_custom_rev1_THusb/nrfx_power.o
 .text.nrfx_power_pof_uninit
                0x0000000000000000        0xc _build/build-bm68rgb_custom_rev1_THusb/nrfx_power.o
 .text.nrfx_power_sleepevt_init
                0x0000000000000000        0xc _build/build-bm68rgb_custom_rev1_THusb/nrfx_power.o
 .text.nrfx_power_sleepevt_enable
                0x0000000000000000       0x46 _build/build-bm68rgb_custom_rev1_THusb/nrfx_power.o
 .text.nrfx_power_sleepevt_disable
                0x0000000000000000        0xc _build/build-bm68rgb_custom_rev1_THusb/nrfx_power.o
 .text.nrfx_power_sleepevt_uninit
                0x0000000000000000        0xc _build/build-bm68rgb_custom_rev1_THusb/nrfx_power.o
 .text.nrfx_power_usbevt_disable
                0x0000000000000000        0xe _build/build-bm68rgb_custom_rev1_THusb/nrfx_power.o
 .text.nrfx_power_usbevt_uninit
                0x0000000000000000        0xc _build/build-bm68rgb_custom_rev1_THusb/nrfx_power.o
 .text          0x0000000000000000        0x0 _build/build-bm68rgb_custom_rev1_THusb/nrfx_nvmc.o
 .data          0x0000000000000000        0x0 _build/build-bm68rgb_custom_rev1_THusb/nrfx_nvmc.o
 .bss           0x0000000000000000        0x0 _build/build-bm68rgb_custom_rev1_THusb/nrfx_nvmc.o
 .text.partial_word_create
                0x0000000000000000       0x26 _build/build-bm68rgb_custom_rev1_THusb/nrfx_nvmc.o
 .text.nrfx_nvmc_uicr_erase
                0x0000000000000000       0x28 _build/build-bm68rgb_custom_rev1_THusb/nrfx_nvmc.o
 .text.nrfx_nvmc_all_erase
                0x0000000000000000       0x24 _build/build-bm68rgb_custom_rev1_THusb/nrfx_nvmc.o
 .text.nrfx_nvmc_page_partial_erase_init
                0x0000000000000000       0x3c _build/build-bm68rgb_custom_rev1_THusb/nrfx_nvmc.o
 .text.nrfx_nvmc_page_partial_erase_continue
                0x0000000000000000       0x48 _build/build-bm68rgb_custom_rev1_THusb/nrfx_nvmc.o
 .text.nrfx_nvmc_byte_writable_check
                0x0000000000000000        0xe _build/build-bm68rgb_custom_rev1_THusb/nrfx_nvmc.o
 .text.nrfx_nvmc_word_writable_check
                0x0000000000000000        0xe _build/build-bm68rgb_custom_rev1_THusb/nrfx_nvmc.o
 .text.nrfx_nvmc_word_write
                0x0000000000000000       0x1c _build/build-bm68rgb_custom_rev1_THusb/nrfx_nvmc.o
 .text.nrfx_nvmc_byte_write
                0x0000000000000000       0x20 _build/build-bm68rgb_custom_rev1_THusb/nrfx_nvmc.o
 .text.nrfx_nvmc_bytes_write
                0x0000000000000000       0x84 _build/build-bm68rgb_custom_rev1_THusb/nrfx_nvmc.o
 .text.nrfx_nvmc_flash_size_get
                0x0000000000000000        0xc _build/build-bm68rgb_custom_rev1_THusb/nrfx_nvmc.o
 .text.nrfx_nvmc_flash_page_size_get
                0x0000000000000000        0x8 _build/build-bm68rgb_custom_rev1_THusb/nrfx_nvmc.o
 .text.nrfx_nvmc_flash_page_count_get
                0x0000000000000000        0x8 _build/build-bm68rgb_custom_rev1_THusb/nrfx_nvmc.o
 .bss.m_partial_erase_time_elapsed
                0x0000000000000000        0x4 _build/build-bm68rgb_custom_rev1_THusb/nrfx_nvmc.o
 .data.m_partial_erase_page_addr
                0x0000000000000000        0x4 _build/build-bm68rgb_custom_rev1_THusb/nrfx_nvmc.o
 .text          0x0000000000000000        0x0 _build/build-bm68rgb_custom_rev1_THusb/system_nrf52840.o
 .data          0x0000000000000000        0x0 _build/build-bm68rgb_custom_rev1_THusb/system_nrf52840.o
 .bss           0x0000000000000000        0x0 _build/build-bm68rgb_custom_rev1_THusb/system_nrf52840.o
 .text.SystemCoreClockUpdate
                0x0000000000000000       0x10 _build/build-bm68rgb_custom_rev1_THusb/system_nrf52840.o
 .text          0x0000000000000000        0x0 _build/build-bm68rgb_custom_rev1_THusb/bootloader.o
 .data          0x0000000000000000        0x0 _build/build-bm68rgb_custom_rev1_THusb/bootloader.o
 .bss           0x0000000000000000        0x0 _build/build-bm68rgb_custom_rev1_THusb/bootloader.o
 .text          0x0000000000000000        0x0 _build/build-bm68rgb_custom_rev1_THusb/bootloader_settings.o
 .data          0x0000000000000000        0x0 _build/build-bm68rgb_custom_rev1_THusb/bootloader_settings.o
 .bss           0x0000000000000000        0x0 _build/build-bm68rgb_custom_rev1_THusb/bootloader_settings.o
 .text.bootloader_mbr_addrs_populate
                0x0000000000000000       0x32 _build/build-bm68rgb_custom_rev1_THusb/bootloader_settings.o
 .mbrParamsPage
                0x0000000000000000     0x1000 _build/build-bm68rgb_custom_rev1_THusb/bootloader_settings.o
 .text          0x0000000000000000        0x0 _build/build-bm68rgb_custom_rev1_THusb/bootloader_util.o
 .data          0x0000000000000000        0x0 _build/build-bm68rgb_custom_rev1_THusb/bootloader_util.o
 .bss           0x0000000000000000        0x0 _build/build-bm68rgb_custom_rev1_THusb/bootloader_util.o
 .text          0x0000000000000000        0x0 _build/build-bm68rgb_custom_rev1_THusb/dfu_transport_serial.o
 .data          0x0000000000000000        0x0 _build/build-bm68rgb_custom_rev1_THusb/dfu_transport_serial.o
 .bss           0x0000000000000000        0x0 _build/build-bm68rgb_custom_rev1_THusb/dfu_transport_serial.o
 .text          0x0000000000000000        0x0 _build/build-bm68rgb_custom_rev1_THusb/dfu_transport_ble.o
 .data          0x0000000000000000        0x0 _build/build-bm68rgb_custom_rev1_THusb/dfu_transport_ble.o
 .bss           0x0000000000000000        0x0 _build/build-bm68rgb_custom_rev1_THusb/dfu_transport_ble.o
 .text          0x0000000000000000        0x0 _build/build-bm68rgb_custom_rev1_THusb/dfu_single_bank.o
 .data          0x0000000000000000        0x0 _build/build-bm68rgb_custom_rev1_THusb/dfu_single_bank.o
 .bss           0x0000000000000000        0x0 _build/build-bm68rgb_custom_rev1_THusb/dfu_single_bank.o
 .text.offset_calculate
                0x0000000000000000       0x3c _build/build-bm68rgb_custom_rev1_THusb/dfu_single_bank.o
 .text          0x0000000000000000        0x0 _build/build-bm68rgb_custom_rev1_THusb/ble_dfu.o
 .data          0x0000000000000000        0x0 _build/build-bm68rgb_custom_rev1_THusb/ble_dfu.o
 .bss           0x0000000000000000        0x0 _build/build-bm68rgb_custom_rev1_THusb/ble_dfu.o
 .text          0x0000000000000000        0x0 _build/build-bm68rgb_custom_rev1_THusb/ble_dis.o
 .data          0x0000000000000000        0x0 _build/build-bm68rgb_custom_rev1_THusb/ble_dis.o
 .bss           0x0000000000000000        0x0 _build/build-bm68rgb_custom_rev1_THusb/ble_dis.o
 .text          0x0000000000000000        0x0 _build/build-bm68rgb_custom_rev1_THusb/pstorage_raw.o
 .data          0x0000000000000000        0x0 _build/build-bm68rgb_custom_rev1_THusb/pstorage_raw.o
 .bss           0x0000000000000000        0x0 _build/build-bm68rgb_custom_rev1_THusb/pstorage_raw.o
 .text.pstorage_block_identifier_get
                0x0000000000000000        0x4 _build/build-bm68rgb_custom_rev1_THusb/pstorage_raw.o
 .text          0x0000000000000000        0x0 _build/build-bm68rgb_custom_rev1_THusb/app_timer.o
 .data          0x0000000000000000        0x0 _build/build-bm68rgb_custom_rev1_THusb/app_timer.o
 .bss           0x0000000000000000        0x0 _build/build-bm68rgb_custom_rev1_THusb/app_timer.o
 .text.app_timer_stop_all
                0x0000000000000000       0x18 _build/build-bm68rgb_custom_rev1_THusb/app_timer.o
 .text.app_timer_cnt_get
                0x0000000000000000        0xc _build/build-bm68rgb_custom_rev1_THusb/app_timer.o
 .text.app_timer_cnt_diff_compute
                0x0000000000000000        0x8 _build/build-bm68rgb_custom_rev1_THusb/app_timer.o
 .text.app_timer_pause
                0x0000000000000000        0xc _build/build-bm68rgb_custom_rev1_THusb/app_timer.o
 .text.app_timer_resume
                0x0000000000000000        0xc _build/build-bm68rgb_custom_rev1_THusb/app_timer.o
 .text          0x0000000000000000        0x0 _build/build-bm68rgb_custom_rev1_THusb/app_scheduler.o
 .data          0x0000000000000000        0x0 _build/build-bm68rgb_custom_rev1_THusb/app_scheduler.o
 .bss           0x0000000000000000        0x0 _build/build-bm68rgb_custom_rev1_THusb/app_scheduler.o
 .text.app_sched_queue_space_get
                0x0000000000000000       0x2c _build/build-bm68rgb_custom_rev1_THusb/app_scheduler.o
 .text          0x0000000000000000        0x0 _build/build-bm68rgb_custom_rev1_THusb/app_error.o
 .data          0x0000000000000000        0x0 _build/build-bm68rgb_custom_rev1_THusb/app_error.o
 .bss           0x0000000000000000        0x0 _build/build-bm68rgb_custom_rev1_THusb/app_error.o
 .text.app_error_handler
                0x0000000000000000       0x1c _build/build-bm68rgb_custom_rev1_THusb/app_error.o
 .text.app_error_save_and_stop
                0x0000000000000000       0x58 _build/build-bm68rgb_custom_rev1_THusb/app_error.o
 .bss.m_error_data.0
                0x0000000000000000       0x20 _build/build-bm68rgb_custom_rev1_THusb/app_error.o
 .text          0x0000000000000000        0x0 _build/build-bm68rgb_custom_rev1_THusb/app_util_platform.o
 .data          0x0000000000000000        0x0 _build/build-bm68rgb_custom_rev1_THusb/app_util_platform.o
 .bss           0x0000000000000000        0x0 _build/build-bm68rgb_custom_rev1_THusb/app_util_platform.o
 .text.app_util_disable_irq
                0x0000000000000000       0x10 _build/build-bm68rgb_custom_rev1_THusb/app_util_platform.o
 .text.app_util_enable_irq
                0x0000000000000000       0x14 _build/build-bm68rgb_custom_rev1_THusb/app_util_platform.o
 .text.privilege_level_get
                0x0000000000000000       0x1a _build/build-bm68rgb_custom_rev1_THusb/app_util_platform.o
 .text.current_int_priority_get
                0x0000000000000000       0x38 _build/build-bm68rgb_custom_rev1_THusb/app_util_platform.o
 .bss.m_in_critical_region
                0x0000000000000000        0x4 _build/build-bm68rgb_custom_rev1_THusb/app_util_platform.o
 .text          0x0000000000000000        0x0 _build/build-bm68rgb_custom_rev1_THusb/crc16.o
 .data          0x0000000000000000        0x0 _build/build-bm68rgb_custom_rev1_THusb/crc16.o
 .bss           0x0000000000000000        0x0 _build/build-bm68rgb_custom_rev1_THusb/crc16.o
 .text          0x0000000000000000        0x0 _build/build-bm68rgb_custom_rev1_THusb/hci_mem_pool.o
 .data          0x0000000000000000        0x0 _build/build-bm68rgb_custom_rev1_THusb/hci_mem_pool.o
 .bss           0x0000000000000000        0x0 _build/build-bm68rgb_custom_rev1_THusb/hci_mem_pool.o
 .text.hci_mem_pool_tx_alloc
                0x0000000000000000       0x24 _build/build-bm68rgb_custom_rev1_THusb/hci_mem_pool.o
 .text.hci_mem_pool_tx_free
                0x0000000000000000        0xc _build/build-bm68rgb_custom_rev1_THusb/hci_mem_pool.o
 .bss.tx_buffer.0
                0x0000000000000000      0x258 _build/build-bm68rgb_custom_rev1_THusb/hci_mem_pool.o
 .text          0x0000000000000000        0x0 _build/build-bm68rgb_custom_rev1_THusb/hci_slip.o
 .data          0x0000000000000000        0x0 _build/build-bm68rgb_custom_rev1_THusb/hci_slip.o
 .bss           0x0000000000000000        0x0 _build/build-bm68rgb_custom_rev1_THusb/hci_slip.o
 .text          0x0000000000000000        0x0 _build/build-bm68rgb_custom_rev1_THusb/hci_transport.o
 .data          0x0000000000000000        0x0 _build/build-bm68rgb_custom_rev1_THusb/hci_transport.o
 .bss           0x0000000000000000        0x0 _build/build-bm68rgb_custom_rev1_THusb/hci_transport.o
 .text.hci_transport_tx_done_register
                0x0000000000000000       0x28 _build/build-bm68rgb_custom_rev1_THusb/hci_transport.o
 .text.hci_transport_tx_alloc
                0x0000000000000000       0x12 _build/build-bm68rgb_custom_rev1_THusb/hci_transport.o
 .text.hci_transport_tx_free
                0x0000000000000000        0x4 _build/build-bm68rgb_custom_rev1_THusb/hci_transport.o
 .text.hci_transport_pkt_write
                0x0000000000000000       0xc0 _build/build-bm68rgb_custom_rev1_THusb/hci_transport.o
 .text          0x0000000000000000        0x0 _build/build-bm68rgb_custom_rev1_THusb/nrf_assert.o
 .data          0x0000000000000000        0x0 _build/build-bm68rgb_custom_rev1_THusb/nrf_assert.o
 .bss           0x0000000000000000        0x0 _build/build-bm68rgb_custom_rev1_THusb/nrf_assert.o
 .text.assert_nrf_callback
                0x0000000000000000       0x1a _build/build-bm68rgb_custom_rev1_THusb/nrf_assert.o
 .debug_info    0x0000000000000000      0x173 _build/build-bm68rgb_custom_rev1_THusb/nrf_assert.o
 .debug_abbrev  0x0000000000000000       0xd4 _build/build-bm68rgb_custom_rev1_THusb/nrf_assert.o
 .debug_loc     0x0000000000000000       0x66 _build/build-bm68rgb_custom_rev1_THusb/nrf_assert.o
 .debug_aranges
                0x0000000000000000       0x20 _build/build-bm68rgb_custom_rev1_THusb/nrf_assert.o
 .debug_ranges  0x0000000000000000       0x10 _build/build-bm68rgb_custom_rev1_THusb/nrf_assert.o
 .debug_line    0x0000000000000000      0x14f _build/build-bm68rgb_custom_rev1_THusb/nrf_assert.o
 .debug_str     0x0000000000000000      0x26f _build/build-bm68rgb_custom_rev1_THusb/nrf_assert.o
 .comment       0x0000000000000000       0x4e _build/build-bm68rgb_custom_rev1_THusb/nrf_assert.o
 .debug_frame   0x0000000000000000       0x28 _build/build-bm68rgb_custom_rev1_THusb/nrf_assert.o
 .ARM.attributes
                0x0000000000000000       0x34 _build/build-bm68rgb_custom_rev1_THusb/nrf_assert.o
 .text          0x0000000000000000        0x0 _build/build-bm68rgb_custom_rev1_THusb/pinconfig.o
 .data          0x0000000000000000        0x0 _build/build-bm68rgb_custom_rev1_THusb/pinconfig.o
 .bss           0x0000000000000000        0x0 _build/build-bm68rgb_custom_rev1_THusb/pinconfig.o
 .text          0x0000000000000000        0x0 _build/build-bm68rgb_custom_rev1_THusb/msc_uf2.o
 .data          0x0000000000000000        0x0 _build/build-bm68rgb_custom_rev1_THusb/msc_uf2.o
 .bss           0x0000000000000000        0x0 _build/build-bm68rgb_custom_rev1_THusb/msc_uf2.o
 .text          0x0000000000000000        0x0 _build/build-bm68rgb_custom_rev1_THusb/usb_desc.o
 .data          0x0000000000000000        0x0 _build/build-bm68rgb_custom_rev1_THusb/usb_desc.o
 .bss           0x0000000000000000        0x0 _build/build-bm68rgb_custom_rev1_THusb/usb_desc.o
 .text          0x0000000000000000        0x0 _build/build-bm68rgb_custom_rev1_THusb/usb.o
 .data          0x0000000000000000        0x0 _build/build-bm68rgb_custom_rev1_THusb/usb.o
 .bss           0x0000000000000000        0x0 _build/build-bm68rgb_custom_rev1_THusb/usb.o
 .text          0x0000000000000000        0x0 _build/build-bm68rgb_custom_rev1_THusb/ghostfat.o
 .data          0x0000000000000000        0x0 _build/build-bm68rgb_custom_rev1_THusb/ghostfat.o
 .bss           0x0000000000000000        0x0 _build/build-bm68rgb_custom_rev1_THusb/ghostfat.o
 .text          0x0000000000000000        0x0 _build/build-bm68rgb_custom_rev1_THusb/dcd_nrf5x.o
 .data          0x0000000000000000        0x0 _build/build-bm68rgb_custom_rev1_THusb/dcd_nrf5x.o
 .bss           0x0000000000000000        0x0 _build/build-bm68rgb_custom_rev1_THusb/dcd_nrf5x.o
 .text.dcd_remote_wakeup
                0x0000000000000000       0x10 _build/build-bm68rgb_custom_rev1_THusb/dcd_nrf5x.o
 .text.dcd_disconnect
                0x0000000000000000       0x14 _build/build-bm68rgb_custom_rev1_THusb/dcd_nrf5x.o
 .text.dcd_connect
                0x0000000000000000       0x10 _build/build-bm68rgb_custom_rev1_THusb/dcd_nrf5x.o
 .text.dcd_edpt_close
                0x0000000000000000       0xb4 _build/build-bm68rgb_custom_rev1_THusb/dcd_nrf5x.o
 .text          0x0000000000000000        0x0 _build/build-bm68rgb_custom_rev1_THusb/tusb_fifo.o
 .data          0x0000000000000000        0x0 _build/build-bm68rgb_custom_rev1_THusb/tusb_fifo.o
 .bss           0x0000000000000000        0x0 _build/build-bm68rgb_custom_rev1_THusb/tusb_fifo.o
 .text.tu_fifo_full
                0x0000000000000000       0x24 _build/build-bm68rgb_custom_rev1_THusb/tusb_fifo.o
 .text.tu_fifo_overflowed
                0x0000000000000000       0x26 _build/build-bm68rgb_custom_rev1_THusb/tusb_fifo.o
 .text.tu_fifo_correct_read_pointer
                0x0000000000000000        0x8 _build/build-bm68rgb_custom_rev1_THusb/tusb_fifo.o
 .text.tu_fifo_read_n_const_addr_full_words
                0x0000000000000000       0x2c _build/build-bm68rgb_custom_rev1_THusb/tusb_fifo.o
 .text.tu_fifo_peek
                0x0000000000000000        0xc _build/build-bm68rgb_custom_rev1_THusb/tusb_fifo.o
 .text.tu_fifo_peek_n
                0x0000000000000000       0x1e _build/build-bm68rgb_custom_rev1_THusb/tusb_fifo.o
 .text.tu_fifo_write_n_const_addr_full_words
                0x0000000000000000        0xc _build/build-bm68rgb_custom_rev1_THusb/tusb_fifo.o
 .text.tu_fifo_advance_write_pointer
                0x0000000000000000       0x12 _build/build-bm68rgb_custom_rev1_THusb/tusb_fifo.o
 .text.tu_fifo_advance_read_pointer
                0x0000000000000000       0x12 _build/build-bm68rgb_custom_rev1_THusb/tusb_fifo.o
 .text.tu_fifo_get_read_info
                0x0000000000000000       0x76 _build/build-bm68rgb_custom_rev1_THusb/tusb_fifo.o
 .text.tu_fifo_get_write_info
                0x0000000000000000       0x62 _build/build-bm68rgb_custom_rev1_THusb/tusb_fifo.o
 .text          0x0000000000000000        0x0 _build/build-bm68rgb_custom_rev1_THusb/usbd.o
 .data          0x0000000000000000        0x0 _build/build-bm68rgb_custom_rev1_THusb/usbd.o
 .bss           0x0000000000000000        0x0 _build/build-bm68rgb_custom_rev1_THusb/usbd.o
 .text.tud_speed_get
                0x0000000000000000        0xc _build/build-bm68rgb_custom_rev1_THusb/usbd.o
 .text.tud_connected
                0x0000000000000000       0x10 _build/build-bm68rgb_custom_rev1_THusb/usbd.o
 .text.tud_remote_wakeup
                0x0000000000000000       0x2c _build/build-bm68rgb_custom_rev1_THusb/usbd.o
 .text.tud_disconnect
                0x0000000000000000       0x14 _build/build-bm68rgb_custom_rev1_THusb/usbd.o
 .text.tud_connect
                0x0000000000000000       0x14 _build/build-bm68rgb_custom_rev1_THusb/usbd.o
 .text.tud_task_event_ready
                0x0000000000000000       0x20 _build/build-bm68rgb_custom_rev1_THusb/usbd.o
 .text.usbd_edpt_xfer_fifo
                0x0000000000000000       0x60 _build/build-bm68rgb_custom_rev1_THusb/usbd.o
 .text.usbd_edpt_close
                0x0000000000000000       0x58 _build/build-bm68rgb_custom_rev1_THusb/usbd.o
 .text          0x0000000000000000        0x0 _build/build-bm68rgb_custom_rev1_THusb/usbd_control.o
 .data          0x0000000000000000        0x0 _build/build-bm68rgb_custom_rev1_THusb/usbd_control.o
 .bss           0x0000000000000000        0x0 _build/build-bm68rgb_custom_rev1_THusb/usbd_control.o
 .text          0x0000000000000000        0x0 _build/build-bm68rgb_custom_rev1_THusb/cdc_device.o
 .data          0x0000000000000000        0x0 _build/build-bm68rgb_custom_rev1_THusb/cdc_device.o
 .bss           0x0000000000000000        0x0 _build/build-bm68rgb_custom_rev1_THusb/cdc_device.o
 .text.tud_cdc_n_connected
                0x0000000000000000       0x2c _build/build-bm68rgb_custom_rev1_THusb/cdc_device.o
 .text.tud_cdc_n_get_line_state
                0x0000000000000000       0x14 _build/build-bm68rgb_custom_rev1_THusb/cdc_device.o
 .text.tud_cdc_n_get_line_coding
                0x0000000000000000       0x20 _build/build-bm68rgb_custom_rev1_THusb/cdc_device.o
 .text.tud_cdc_n_set_wanted_char
                0x0000000000000000       0x14 _build/build-bm68rgb_custom_rev1_THusb/cdc_device.o
 .text.tud_cdc_n_peek
                0x0000000000000000       0x14 _build/build-bm68rgb_custom_rev1_THusb/cdc_device.o
 .text.tud_cdc_n_read_flush
                0x0000000000000000       0x24 _build/build-bm68rgb_custom_rev1_THusb/cdc_device.o
 .text.tud_cdc_n_write_available
                0x0000000000000000       0x18 _build/build-bm68rgb_custom_rev1_THusb/cdc_device.o
 .text.tud_cdc_n_write_clear
                0x0000000000000000       0x14 _build/build-bm68rgb_custom_rev1_THusb/cdc_device.o
 .text          0x0000000000000000        0x0 _build/build-bm68rgb_custom_rev1_THusb/msc_device.o
 .data          0x0000000000000000        0x0 _build/build-bm68rgb_custom_rev1_THusb/msc_device.o
 .bss           0x0000000000000000        0x0 _build/build-bm68rgb_custom_rev1_THusb/msc_device.o
 .text          0x0000000000000000        0x0 _build/build-bm68rgb_custom_rev1_THusb/tusb.o
 .data          0x0000000000000000        0x0 _build/build-bm68rgb_custom_rev1_THusb/tusb.o
 .bss           0x0000000000000000        0x0 _build/build-bm68rgb_custom_rev1_THusb/tusb.o
 .text.tu_desc_get_interface_total_len
                0x0000000000000000       0x38 _build/build-bm68rgb_custom_rev1_THusb/tusb.o
 .data          0x0000000000000000        0x0 _build/build-bm68rgb_custom_rev1_THusb/gcc_startup_nrf52840.o
 .bss           0x0000000000000000        0x0 _build/build-bm68rgb_custom_rev1_THusb/gcc_startup_nrf52840.o
 .text          0x0000000000000000        0x0 /usr/share/gcc-arm-none-eabi-10-2020-q4-major/bin/../lib/gcc/arm-none-eabi/10.2.1/../../../../arm-none-eabi/lib/thumb/v7e-m+fp/hard/libc_nano.a(lib_a-memcmp.o)
 .data          0x0000000000000000        0x0 /usr/share/gcc-arm-none-eabi-10-2020-q4-major/bin/../lib/gcc/arm-none-eabi/10.2.1/../../../../arm-none-eabi/lib/thumb/v7e-m+fp/hard/libc_nano.a(lib_a-memcmp.o)
 .bss           0x0000000000000000        0x0 /usr/share/gcc-arm-none-eabi-10-2020-q4-major/bin/../lib/gcc/arm-none-eabi/10.2.1/../../../../arm-none-eabi/lib/thumb/v7e-m+fp/hard/libc_nano.a(lib_a-memcmp.o)
 .text          0x0000000000000000        0x0 /usr/share/gcc-arm-none-eabi-10-2020-q4-major/bin/../lib/gcc/arm-none-eabi/10.2.1/../../../../arm-none-eabi/lib/thumb/v7e-m+fp/hard/libc_nano.a(lib_a-memcpy-stub.o)
 .data          0x0000000000000000        0x0 /usr/share/gcc-arm-none-eabi-10-2020-q4-major/bin/../lib/gcc/arm-none-eabi/10.2.1/../../../../arm-none-eabi/lib/thumb/v7e-m+fp/hard/libc_nano.a(lib_a-memcpy-stub.o)
 .bss           0x0000000000000000        0x0 /usr/share/gcc-arm-none-eabi-10-2020-q4-major/bin/../lib/gcc/arm-none-eabi/10.2.1/../../../../arm-none-eabi/lib/thumb/v7e-m+fp/hard/libc_nano.a(lib_a-memcpy-stub.o)
 .text          0x0000000000000000        0x0 /usr/share/gcc-arm-none-eabi-10-2020-q4-major/bin/../lib/gcc/arm-none-eabi/10.2.1/../../../../arm-none-eabi/lib/thumb/v7e-m+fp/hard/libc_nano.a(lib_a-memmove.o)
 .data          0x0000000000000000        0x0 /usr/share/gcc-arm-none-eabi-10-2020-q4-major/bin/../lib/gcc/arm-none-eabi/10.2.1/../../../../arm-none-eabi/lib/thumb/v7e-m+fp/hard/libc_nano.a(lib_a-memmove.o)
 .bss           0x0000000000000000        0x0 /usr/share/gcc-arm-none-eabi-10-2020-q4-major/bin/../lib/gcc/arm-none-eabi/10.2.1/../../../../arm-none-eabi/lib/thumb/v7e-m+fp/hard/libc_nano.a(lib_a-memmove.o)
 .text          0x0000000000000000        0x0 /usr/share/gcc-arm-none-eabi-10-2020-q4-major/bin/../lib/gcc/arm-none-eabi/10.2.1/../../../../arm-none-eabi/lib/thumb/v7e-m+fp/hard/libc_nano.a(lib_a-strcat.o)
 .data          0x0000000000000000        0x0 /usr/share/gcc-arm-none-eabi-10-2020-q4-major/bin/../lib/gcc/arm-none-eabi/10.2.1/../../../../arm-none-eabi/lib/thumb/v7e-m+fp/hard/libc_nano.a(lib_a-strcat.o)
 .bss           0x0000000000000000        0x0 /usr/share/gcc-arm-none-eabi-10-2020-q4-major/bin/../lib/gcc/arm-none-eabi/10.2.1/../../../../arm-none-eabi/lib/thumb/v7e-m+fp/hard/libc_nano.a(lib_a-strcat.o)
 .data          0x0000000000000000        0x0 /usr/share/gcc-arm-none-eabi-10-2020-q4-major/bin/../lib/gcc/arm-none-eabi/10.2.1/../../../../arm-none-eabi/lib/thumb/v7e-m+fp/hard/libc_nano.a(lib_a-strlen.o)
 .bss           0x0000000000000000        0x0 /usr/share/gcc-arm-none-eabi-10-2020-q4-major/bin/../lib/gcc/arm-none-eabi/10.2.1/../../../../arm-none-eabi/lib/thumb/v7e-m+fp/hard/libc_nano.a(lib_a-strlen.o)
 .text          0x0000000000000000        0x0 /usr/share/gcc-arm-none-eabi-10-2020-q4-major/bin/../lib/gcc/arm-none-eabi/10.2.1/../../../../arm-none-eabi/lib/thumb/v7e-m+fp/hard/libc_nano.a(lib_a-utoa.o)
 .data          0x0000000000000000        0x0 /usr/share/gcc-arm-none-eabi-10-2020-q4-major/bin/../lib/gcc/arm-none-eabi/10.2.1/../../../../arm-none-eabi/lib/thumb/v7e-m+fp/hard/libc_nano.a(lib_a-utoa.o)
 .bss           0x0000000000000000        0x0 /usr/share/gcc-arm-none-eabi-10-2020-q4-major/bin/../lib/gcc/arm-none-eabi/10.2.1/../../../../arm-none-eabi/lib/thumb/v7e-m+fp/hard/libc_nano.a(lib_a-utoa.o)
 .text          0x0000000000000000       0xa0 /usr/share/gcc-arm-none-eabi-10-2020-q4-major/bin/../lib/gcc/arm-none-eabi/10.2.1/thumb/v7e-m+fp/hard/libgcc.a(_aeabi_ldivmod.o)
 .data          0x0000000000000000        0x0 /usr/share/gcc-arm-none-eabi-10-2020-q4-major/bin/../lib/gcc/arm-none-eabi/10.2.1/thumb/v7e-m+fp/hard/libgcc.a(_aeabi_ldivmod.o)
 .bss           0x0000000000000000        0x0 /usr/share/gcc-arm-none-eabi-10-2020-q4-major/bin/../lib/gcc/arm-none-eabi/10.2.1/thumb/v7e-m+fp/hard/libgcc.a(_aeabi_ldivmod.o)
 .debug_frame   0x0000000000000000       0x44 /usr/share/gcc-arm-none-eabi-10-2020-q4-major/bin/../lib/gcc/arm-none-eabi/10.2.1/thumb/v7e-m+fp/hard/libgcc.a(_aeabi_ldivmod.o)
 .ARM.attributes
                0x0000000000000000       0x1e /usr/share/gcc-arm-none-eabi-10-2020-q4-major/bin/../lib/gcc/arm-none-eabi/10.2.1/thumb/v7e-m+fp/hard/libgcc.a(_aeabi_ldivmod.o)
 .data          0x0000000000000000        0x0 /usr/share/gcc-arm-none-eabi-10-2020-q4-major/bin/../lib/gcc/arm-none-eabi/10.2.1/thumb/v7e-m+fp/hard/libgcc.a(_aeabi_uldivmod.o)
 .bss           0x0000000000000000        0x0 /usr/share/gcc-arm-none-eabi-10-2020-q4-major/bin/../lib/gcc/arm-none-eabi/10.2.1/thumb/v7e-m+fp/hard/libgcc.a(_aeabi_uldivmod.o)
 .data          0x0000000000000000        0x0 /usr/share/gcc-arm-none-eabi-10-2020-q4-major/bin/../lib/gcc/arm-none-eabi/10.2.1/thumb/v7e-m+fp/hard/libgcc.a(_udivmoddi4.o)
 .bss           0x0000000000000000        0x0 /usr/share/gcc-arm-none-eabi-10-2020-q4-major/bin/../lib/gcc/arm-none-eabi/10.2.1/thumb/v7e-m+fp/hard/libgcc.a(_udivmoddi4.o)
 .ARM.extab     0x0000000000000000        0x0 /usr/share/gcc-arm-none-eabi-10-2020-q4-major/bin/../lib/gcc/arm-none-eabi/10.2.1/thumb/v7e-m+fp/hard/libgcc.a(_udivmoddi4.o)
 .data          0x0000000000000000        0x0 /usr/share/gcc-arm-none-eabi-10-2020-q4-major/bin/../lib/gcc/arm-none-eabi/10.2.1/thumb/v7e-m+fp/hard/libgcc.a(_dvmd_tls.o)
 .bss           0x0000000000000000        0x0 /usr/share/gcc-arm-none-eabi-10-2020-q4-major/bin/../lib/gcc/arm-none-eabi/10.2.1/thumb/v7e-m+fp/hard/libgcc.a(_dvmd_tls.o)
 .text          0x0000000000000000        0x0 /usr/share/gcc-arm-none-eabi-10-2020-q4-major/bin/../lib/gcc/arm-none-eabi/10.2.1/thumb/v7e-m+fp/hard/crtend.o
 .data          0x0000000000000000        0x0 /usr/share/gcc-arm-none-eabi-10-2020-q4-major/bin/../lib/gcc/arm-none-eabi/10.2.1/thumb/v7e-m+fp/hard/crtend.o
 .bss           0x0000000000000000        0x0 /usr/share/gcc-arm-none-eabi-10-2020-q4-major/bin/../lib/gcc/arm-none-eabi/10.2.1/thumb/v7e-m+fp/hard/crtend.o
 .rodata        0x0000000000000000       0x24 /usr/share/gcc-arm-none-eabi-10-2020-q4-major/bin/../lib/gcc/arm-none-eabi/10.2.1/thumb/v7e-m+fp/hard/crtend.o
 .text          0x0000000000000000        0x0 /usr/share/gcc-arm-none-eabi-10-2020-q4-major/bin/../lib/gcc/arm-none-eabi/10.2.1/thumb/v7e-m+fp/hard/crtn.o
 .data          0x0000000000000000        0x0 /usr/share/gcc-arm-none-eabi-10-2020-q4-major/bin/../lib/gcc/arm-none-eabi/10.2.1/thumb/v7e-m+fp/hard/crtn.o
 .bss           0x0000000000000000        0x0 /usr/share/gcc-arm-none-eabi-10-2020-q4-major/bin/../lib/gcc/arm-none-eabi/10.2.1/thumb/v7e-m+fp/hard/crtn.o

Memory Configuration

Name             Origin             Length             Attributes
FLASH            0x00000000000f4000 0x0000000000009800 xr
BOOTLOADER_CONFIG 0x00000000000fd800 0x0000000000000800 r
MBR_PARAMS_PAGE  0x00000000000fe000 0x0000000000001000 rw
BOOTLOADER_SETTINGS 0x00000000000ff000 0x0000000000001000 rw
RAM              0x0000000020008000 0x0000000000038000 xrw
DBL_RESET        0x0000000020007f7c 0x0000000000000004 xrw
NOINIT           0x0000000020007f80 0x0000000000000080 xrw
UICR_BOOTLOADER  0x0000000010001014 0x0000000000000004 r
UICR_MBR_PARAM_PAGE 0x0000000010001018 0x0000000000000004 r
*default*        0x0000000000000000 0xffffffffffffffff

Linker script and memory map

LOAD /usr/share/gcc-arm-none-eabi-10-2020-q4-major/bin/../lib/gcc/arm-none-eabi/10.2.1/thumb/v7e-m+fp/hard/crti.o
LOAD /usr/share/gcc-arm-none-eabi-10-2020-q4-major/bin/../lib/gcc/arm-none-eabi/10.2.1/thumb/v7e-m+fp/hard/crtbegin.o
LOAD /usr/share/gcc-arm-none-eabi-10-2020-q4-major/bin/../lib/gcc/arm-none-eabi/10.2.1/../../../../arm-none-eabi/lib/thumb/v7e-m+fp/hard/crt0.o
START GROUP
LOAD /usr/share/gcc-arm-none-eabi-10-2020-q4-major/bin/../lib/gcc/arm-none-eabi/10.2.1/thumb/v7e-m+fp/hard/libgcc.a
LOAD /usr/share/gcc-arm-none-eabi-10-2020-q4-major/bin/../lib/gcc/arm-none-eabi/10.2.1/../../../../arm-none-eabi/lib/thumb/v7e-m+fp/hard/libc.a
LOAD /usr/share/gcc-arm-none-eabi-10-2020-q4-major/bin/../lib/gcc/arm-none-eabi/10.2.1/../../../../arm-none-eabi/lib/thumb/v7e-m+fp/hard/libnosys.a
END GROUP

.fs_data_out    0x0000000000000000        0x0
                [!provide]                        PROVIDE (__start_fs_data = .)
 *(fs_data)
                [!provide]                        PROVIDE (__stop_fs_data = .)

.bootloaderConfig
                0x00000000000fd800       0x58
 *(.bootloaderConfig)
 .bootloaderConfig
                0x00000000000fd800       0x58 _build/build-bm68rgb_custom_rev1_THusb/pinconfig.o
                0x00000000000fd800                bootloaderConfig

.bootloaderSettings
                0x00000000000ff000     0x1000
 .bootloaderSettings
                0x00000000000ff000     0x1000 _build/build-bm68rgb_custom_rev1_THusb/bootloader_settings.o
                0x00000000000ff000                m_boot_settings

.uicrBootStartAddress
                0x0000000010001014        0x4
 *(.uicrBootStartAddress)
 .uicrBootStartAddress
                0x0000000010001014        0x4 _build/build-bm68rgb_custom_rev1_THusb/bootloader_settings.o
                0x0000000010001014                m_uicr_bootloader_start_address

.mbrParamsPage

.uicrMbrParamsPageAddress
                0x0000000010001018        0x4
 *(.uicrMbrParamsPageAddress)
 .uicrMbrParamsPageAddress
                0x0000000010001018        0x4 _build/build-bm68rgb_custom_rev1_THusb/bootloader_settings.o
                0x0000000010001018                m_uicr_mbr_params_page_address

.dbl_reset

.noinit         0x0000000020007f80       0x3e
 .noinit        0x0000000020007f80       0x3e _build/build-bm68rgb_custom_rev1_THusb/dfu_ble_svc.o

.text           0x00000000000f4000     0x7a74
 *(.isr_vector)
 .isr_vector    0x00000000000f4000      0x200 _build/build-bm68rgb_custom_rev1_THusb/gcc_startup_nrf52840.o
                0x00000000000f4000                __isr_vector
 *(.text*)
 .text          0x00000000000f4200       0x40 /usr/share/gcc-arm-none-eabi-10-2020-q4-major/bin/../lib/gcc/arm-none-eabi/10.2.1/thumb/v7e-m+fp/hard/crtbegin.o
 .text          0x00000000000f4240       0x7c /usr/share/gcc-arm-none-eabi-10-2020-q4-major/bin/../lib/gcc/arm-none-eabi/10.2.1/../../../../arm-none-eabi/lib/thumb/v7e-m+fp/hard/crt0.o
                0x00000000000f4240                _stack_init
                0x00000000000f4248                _mainCRTStartup
                0x00000000000f4248                _start
 .text.exit     0x00000000000f42bc       0x20 /usr/share/gcc-arm-none-eabi-10-2020-q4-major/bin/../lib/gcc/arm-none-eabi/10.2.1/../../../../arm-none-eabi/lib/thumb/v7e-m+fp/hard/libc.a(lib_a-exit.o)
                0x00000000000f42bc                exit
 .text.__libc_init_array
                0x00000000000f42dc       0x48 /usr/share/gcc-arm-none-eabi-10-2020-q4-major/bin/../lib/gcc/arm-none-eabi/10.2.1/../../../../arm-none-eabi/lib/thumb/v7e-m+fp/hard/libc.a(lib_a-init.o)
                0x00000000000f42dc                __libc_init_array
 .text.memset   0x00000000000f4324       0xa4 /usr/share/gcc-arm-none-eabi-10-2020-q4-major/bin/../lib/gcc/arm-none-eabi/10.2.1/../../../../arm-none-eabi/lib/thumb/v7e-m+fp/hard/libc.a(lib_a-memset.o)
                0x00000000000f4324                memset
 .text.startup.register_fini
                0x00000000000f43c8       0x14 /usr/share/gcc-arm-none-eabi-10-2020-q4-major/bin/../lib/gcc/arm-none-eabi/10.2.1/../../../../arm-none-eabi/lib/thumb/v7e-m+fp/hard/libc.a(lib_a-__call_atexit.o)
 .text.__call_exitprocs
                0x00000000000f43dc       0xcc /usr/share/gcc-arm-none-eabi-10-2020-q4-major/bin/../lib/gcc/arm-none-eabi/10.2.1/../../../../arm-none-eabi/lib/thumb/v7e-m+fp/hard/libc.a(lib_a-__call_atexit.o)
                0x00000000000f43dc                __call_exitprocs
 .text.atexit   0x00000000000f44a8        0xc /usr/share/gcc-arm-none-eabi-10-2020-q4-major/bin/../lib/gcc/arm-none-eabi/10.2.1/../../../../arm-none-eabi/lib/thumb/v7e-m+fp/hard/libc.a(lib_a-atexit.o)
                0x00000000000f44a8                atexit
 .text.__libc_fini_array
                0x00000000000f44b4       0x2c /usr/share/gcc-arm-none-eabi-10-2020-q4-major/bin/../lib/gcc/arm-none-eabi/10.2.1/../../../../arm-none-eabi/lib/thumb/v7e-m+fp/hard/libc.a(lib_a-fini.o)
                0x00000000000f44b4                __libc_fini_array
 .text.__retarget_lock_acquire_recursive
                0x00000000000f44e0        0x4 /usr/share/gcc-arm-none-eabi-10-2020-q4-major/bin/../lib/gcc/arm-none-eabi/10.2.1/../../../../arm-none-eabi/lib/thumb/v7e-m+fp/hard/libc.a(lib_a-lock.o)
                0x00000000000f44e0                __retarget_lock_acquire_recursive
 .text.__retarget_lock_release_recursive
                0x00000000000f44e4        0x4 /usr/share/gcc-arm-none-eabi-10-2020-q4-major/bin/../lib/gcc/arm-none-eabi/10.2.1/../../../../arm-none-eabi/lib/thumb/v7e-m+fp/hard/libc.a(lib_a-lock.o)
                0x00000000000f44e4                __retarget_lock_release_recursive
 .text.__register_exitproc
                0x00000000000f44e8       0x8c /usr/share/gcc-arm-none-eabi-10-2020-q4-major/bin/../lib/gcc/arm-none-eabi/10.2.1/../../../../arm-none-eabi/lib/thumb/v7e-m+fp/hard/libc.a(lib_a-__atexit.o)
                0x00000000000f44e8                __register_exitproc
 .text._exit    0x00000000000f4574        0x4 /usr/share/gcc-arm-none-eabi-10-2020-q4-major/bin/../lib/gcc/arm-none-eabi/10.2.1/../../../../arm-none-eabi/lib/thumb/v7e-m+fp/hard/libnosys.a(_exit.o)
                0x00000000000f4574                _exit
 .text.C_SVC_Handler
                0x00000000000f4578       0x4c _build/build-bm68rgb_custom_rev1_THusb/dfu_ble_svc.o
                0x00000000000f4578                C_SVC_Handler
 .text.SVC_Handler
                0x00000000000f45c4       0x24 _build/build-bm68rgb_custom_rev1_THusb/dfu_ble_svc.o
                0x00000000000f45c4                SVC_Handler
 .text.dfu_ble_peer_data_get
                0x00000000000f45e8       0x40 _build/build-bm68rgb_custom_rev1_THusb/dfu_ble_svc.o
                0x00000000000f45e8                dfu_ble_peer_data_get
 .text.dfu_init_prevalidate
                0x00000000000f4628       0x74 _build/build-bm68rgb_custom_rev1_THusb/dfu_init.o
                0x00000000000f4628                dfu_init_prevalidate
 .text.dfu_init_postvalidate
                0x00000000000f469c       0x1c _build/build-bm68rgb_custom_rev1_THusb/dfu_init.o
                0x00000000000f469c                dfu_init_postvalidate
 .text.flash_nrf5x_flush
                0x00000000000f46b8       0x3c _build/build-bm68rgb_custom_rev1_THusb/flash_nrf5x.o
                0x00000000000f46b8                flash_nrf5x_flush
 .text.flash_nrf5x_write
                0x00000000000f46f4       0x50 _build/build-bm68rgb_custom_rev1_THusb/flash_nrf5x.o
                0x00000000000f46f4                flash_nrf5x_write
 .text.NVIC_SystemReset
                0x00000000000f4744       0x24 _build/build-bm68rgb_custom_rev1_THusb/main.o
 .text.sd_evt_get
                0x00000000000f4768        0x4 _build/build-bm68rgb_custom_rev1_THusb/main.o
 .text.sd_softdevice_enable
                0x00000000000f476c        0x4 _build/build-bm68rgb_custom_rev1_THusb/main.o
 .text.sd_softdevice_disable
                0x00000000000f4770        0x4 _build/build-bm68rgb_custom_rev1_THusb/main.o
 .text.sd_softdevice_vector_table_base_set
                0x00000000000f4774        0x4 _build/build-bm68rgb_custom_rev1_THusb/main.o
 .text.sd_mbr_command
                0x00000000000f4778        0x4 _build/build-bm68rgb_custom_rev1_THusb/main.o
 .text.sd_ble_enable
                0x00000000000f477c        0x4 _build/build-bm68rgb_custom_rev1_THusb/main.o
 .text.sd_ble_cfg_set
                0x00000000000f4780        0x4 _build/build-bm68rgb_custom_rev1_THusb/main.o
 .text.sd_ble_evt_get
                0x00000000000f4784        0x4 _build/build-bm68rgb_custom_rev1_THusb/main.o
 .text.mbr_init_sd
                0x00000000000f4788       0x1a _build/build-bm68rgb_custom_rev1_THusb/main.o
 .text.app_error_fault_handler
                0x00000000000f47a2       0x14 _build/build-bm68rgb_custom_rev1_THusb/main.o
                0x00000000000f47a2                app_error_fault_handler
 *fill*         0x00000000000f47b6        0x2 
 .text.is_ota   0x00000000000f47b8        0xc _build/build-bm68rgb_custom_rev1_THusb/main.o
                0x00000000000f47b8                is_ota
 .text.startup.main
                0x00000000000f47c4      0x324 _build/build-bm68rgb_custom_rev1_THusb/main.o
                0x00000000000f47c4                main
 .text.proc_ble
                0x00000000000f4ae8       0x54 _build/build-bm68rgb_custom_rev1_THusb/main.o
                0x00000000000f4ae8                proc_ble
 .text.proc_soc
                0x00000000000f4b3c       0x38 _build/build-bm68rgb_custom_rev1_THusb/main.o
                0x00000000000f4b3c                proc_soc
 .text.proc_sd_task
                0x00000000000f4b74       0x14 _build/build-bm68rgb_custom_rev1_THusb/main.o
                0x00000000000f4b74                proc_sd_task
 .text.SWI2_EGU2_IRQHandler
                0x00000000000f4b88       0x10 _build/build-bm68rgb_custom_rev1_THusb/main.o
                0x00000000000f4b88                SWI2_EGU2_IRQHandler
 .text.button_init
                0x00000000000f4b98       0x24 _build/build-bm68rgb_custom_rev1_THusb/boards.o
                0x00000000000f4b98                button_init
 .text.button_pressed
                0x00000000000f4bbc       0x24 _build/build-bm68rgb_custom_rev1_THusb/boards.o
                0x00000000000f4bbc                button_pressed
 .text.pwm_teardown
                0x00000000000f4be0       0x3e _build/build-bm68rgb_custom_rev1_THusb/boards.o
                0x00000000000f4be0                pwm_teardown
 *fill*         0x00000000000f4c1e        0x2 
 .text.led_pwm_init
                0x00000000000f4c20       0x7c _build/build-bm68rgb_custom_rev1_THusb/boards.o
                0x00000000000f4c20                led_pwm_init
 .text.board_init
                0x00000000000f4c9c       0x8c _build/build-bm68rgb_custom_rev1_THusb/boards.o
                0x00000000000f4c9c                board_init
 .text.led_pwm_teardown
                0x00000000000f4d28        0xc _build/build-bm68rgb_custom_rev1_THusb/boards.o
                0x00000000000f4d28                led_pwm_teardown
 .text.board_teardown
                0x00000000000f4d34       0x68 _build/build-bm68rgb_custom_rev1_THusb/boards.o
                0x00000000000f4d34                board_teardown
 .text.led_pwm_duty_cycle
                0x00000000000f4d9c       0x28 _build/build-bm68rgb_custom_rev1_THusb/boards.o
                0x00000000000f4d9c                led_pwm_duty_cycle
 .text.led_tick
                0x00000000000f4dc4       0x6c _build/build-bm68rgb_custom_rev1_THusb/boards.o
                0x00000000000f4dc4                led_tick
 .text.SysTick_Handler
                0x00000000000f4e30       0x10 _build/build-bm68rgb_custom_rev1_THusb/boards.o
                0x00000000000f4e30                SysTick_Handler
 .text.led_state
                0x00000000000f4e40       0x7c _build/build-bm68rgb_custom_rev1_THusb/boards.o
                0x00000000000f4e40                led_state
 .text.nrf_power_event_get_and_clear.constprop.0
                0x00000000000f4ebc       0x20 _build/build-bm68rgb_custom_rev1_THusb/nrfx_power.o
 .text.nrfx_power_init
                0x00000000000f4edc       0x50 _build/build-bm68rgb_custom_rev1_THusb/nrfx_power.o
                0x00000000000f4edc                nrfx_power_init
 .text.nrfx_power_usbevt_init
                0x00000000000f4f2c        0xc _build/build-bm68rgb_custom_rev1_THusb/nrfx_power.o
                0x00000000000f4f2c                nrfx_power_usbevt_init
 .text.nrfx_power_usbevt_enable
                0x00000000000f4f38        0xe _build/build-bm68rgb_custom_rev1_THusb/nrfx_power.o
                0x00000000000f4f38                nrfx_power_usbevt_enable
 *fill*         0x00000000000f4f46        0x2 
 .text.POWER_CLOCK_IRQHandler
                0x00000000000f4f48       0xa0 _build/build-bm68rgb_custom_rev1_THusb/nrfx_power.o
                0x00000000000f4f48                POWER_CLOCK_IRQHandler
 .text.nvmc_word_write
                0x00000000000f4fe8       0x18 _build/build-bm68rgb_custom_rev1_THusb/nrfx_nvmc.o
 .text.nrfx_nvmc_page_erase
                0x00000000000f5000       0x40 _build/build-bm68rgb_custom_rev1_THusb/nrfx_nvmc.o
                0x00000000000f5000                nrfx_nvmc_page_erase
 .text.nrfx_nvmc_words_write
                0x00000000000f5040       0x34 _build/build-bm68rgb_custom_rev1_THusb/nrfx_nvmc.o
                0x00000000000f5040                nrfx_nvmc_words_write
 .text.NVIC_SystemReset
                0x00000000000f5074       0x24 _build/build-bm68rgb_custom_rev1_THusb/system_nrf52840.o
 .text.errata_98
                0x00000000000f5098       0x24 _build/build-bm68rgb_custom_rev1_THusb/system_nrf52840.o
 .text.SystemInit
                0x00000000000f50bc      0x1f8 _build/build-bm68rgb_custom_rev1_THusb/system_nrf52840.o
                0x00000000000f50bc                SystemInit
 .text.sd_softdevice_vector_table_base_set
                0x00000000000f52b4        0x4 _build/build-bm68rgb_custom_rev1_THusb/bootloader.o
 .text.sd_mbr_command
                0x00000000000f52b8        0x4 _build/build-bm68rgb_custom_rev1_THusb/bootloader.o
 .text.pstorage_callback_handler
                0x00000000000f52bc       0x20 _build/build-bm68rgb_custom_rev1_THusb/bootloader.o
 .text.bootloader_settings_save.constprop.0
                0x00000000000f52dc       0x5c _build/build-bm68rgb_custom_rev1_THusb/bootloader.o
 .text.wait_for_events
                0x00000000000f5338       0x58 _build/build-bm68rgb_custom_rev1_THusb/bootloader.o
 .text.bootloader_app_is_valid
                0x00000000000f5390       0x54 _build/build-bm68rgb_custom_rev1_THusb/bootloader.o
                0x00000000000f5390                bootloader_app_is_valid
 .text.bootloader_dfu_update_process
                0x00000000000f53e4      0x10c _build/build-bm68rgb_custom_rev1_THusb/bootloader.o
                0x00000000000f53e4                bootloader_dfu_update_process
 .text.dfu_startup_timer_handler
                0x00000000000f54f0       0x3c _build/build-bm68rgb_custom_rev1_THusb/bootloader.o
 .text.bootloader_init
                0x00000000000f552c       0x30 _build/build-bm68rgb_custom_rev1_THusb/bootloader.o
                0x00000000000f552c                bootloader_init
 .text.bootloader_dfu_start
                0x00000000000f555c       0x78 _build/build-bm68rgb_custom_rev1_THusb/bootloader.o
                0x00000000000f555c                bootloader_dfu_start
 .text.bootloader_app_start
                0x00000000000f55d4       0x58 _build/build-bm68rgb_custom_rev1_THusb/bootloader.o
                0x00000000000f55d4                bootloader_app_start
 .text.bootloader_dfu_sd_in_progress
                0x00000000000f562c       0x24 _build/build-bm68rgb_custom_rev1_THusb/bootloader.o
                0x00000000000f562c                bootloader_dfu_sd_in_progress
 .text.bootloader_dfu_sd_update_continue
                0x00000000000f5650       0x4c _build/build-bm68rgb_custom_rev1_THusb/bootloader.o
                0x00000000000f5650                bootloader_dfu_sd_update_continue
 .text.bootloader_dfu_sd_update_finalize
                0x00000000000f569c       0x2c _build/build-bm68rgb_custom_rev1_THusb/bootloader.o
                0x00000000000f569c                bootloader_dfu_sd_update_finalize
 .text.bootloader_settings_get
                0x00000000000f56c8       0x30 _build/build-bm68rgb_custom_rev1_THusb/bootloader.o
                0x00000000000f56c8                bootloader_settings_get
 .text.bootloader_util_settings_get
                0x00000000000f56f8        0xc _build/build-bm68rgb_custom_rev1_THusb/bootloader_settings.o
                0x00000000000f56f8                bootloader_util_settings_get
 .text.bootloader_util_reset
                0x00000000000f5704       0x3c _build/build-bm68rgb_custom_rev1_THusb/bootloader_util.o
 .text.bootloader_util_app_start
                0x00000000000f5740        0x4 _build/build-bm68rgb_custom_rev1_THusb/bootloader_util.o
                0x00000000000f5740                bootloader_util_app_start
 .text.rpc_transport_event_handler
                0x00000000000f5744       0x84 _build/build-bm68rgb_custom_rev1_THusb/dfu_transport_serial.o
                0x00000000000f5744                rpc_transport_event_handler
 .text.dfu_cb_handler
                0x00000000000f57c8        0xa _build/build-bm68rgb_custom_rev1_THusb/dfu_transport_serial.o
 *fill*         0x00000000000f57d2        0x2 
 .text.data_queue_element_free
                0x00000000000f57d4       0x38 _build/build-bm68rgb_custom_rev1_THusb/dfu_transport_serial.o
 .text.process_dfu_packet
                0x00000000000f580c       0x90 _build/build-bm68rgb_custom_rev1_THusb/dfu_transport_serial.o
 .text.dfu_transport_serial_update_start
                0x00000000000f589c       0x48 _build/build-bm68rgb_custom_rev1_THusb/dfu_transport_serial.o
                0x00000000000f589c                dfu_transport_serial_update_start
 .text.dfu_transport_serial_close
                0x00000000000f58e4       0x22 _build/build-bm68rgb_custom_rev1_THusb/dfu_transport_serial.o
                0x00000000000f58e4                dfu_transport_serial_close
 .text.uint32_decode
                0x00000000000f5906        0x4 _build/build-bm68rgb_custom_rev1_THusb/dfu_transport_ble.o
 .text.sd_ble_gap_addr_set
                0x00000000000f590a        0x4 _build/build-bm68rgb_custom_rev1_THusb/dfu_transport_ble.o
 .text.sd_ble_gap_addr_get
                0x00000000000f590e        0x4 _build/build-bm68rgb_custom_rev1_THusb/dfu_transport_ble.o
 .text.sd_ble_gap_whitelist_set
                0x00000000000f5912        0x4 _build/build-bm68rgb_custom_rev1_THusb/dfu_transport_ble.o
 .text.sd_ble_gap_device_identities_set
                0x00000000000f5916        0x4 _build/build-bm68rgb_custom_rev1_THusb/dfu_transport_ble.o
 .text.sd_ble_gap_adv_set_configure
                0x00000000000f591a        0x4 _build/build-bm68rgb_custom_rev1_THusb/dfu_transport_ble.o
 .text.sd_ble_gap_adv_start
                0x00000000000f591e        0x4 _build/build-bm68rgb_custom_rev1_THusb/dfu_transport_ble.o
 .text.sd_ble_gap_adv_stop
                0x00000000000f5922        0x4 _build/build-bm68rgb_custom_rev1_THusb/dfu_transport_ble.o
 .text.sd_ble_gap_disconnect
                0x00000000000f5926        0x4 _build/build-bm68rgb_custom_rev1_THusb/dfu_transport_ble.o
 .text.sd_ble_gap_tx_power_set
                0x00000000000f592a        0x4 _build/build-bm68rgb_custom_rev1_THusb/dfu_transport_ble.o
 .text.sd_ble_gap_ppcp_set
                0x00000000000f592e        0x4 _build/build-bm68rgb_custom_rev1_THusb/dfu_transport_ble.o
 .text.sd_ble_gap_device_name_set
                0x00000000000f5932        0x4 _build/build-bm68rgb_custom_rev1_THusb/dfu_transport_ble.o
 .text.sd_ble_gap_sec_params_reply
                0x00000000000f5936        0x4 _build/build-bm68rgb_custom_rev1_THusb/dfu_transport_ble.o
 .text.sd_ble_gap_sec_info_reply
                0x00000000000f593a        0x4 _build/build-bm68rgb_custom_rev1_THusb/dfu_transport_ble.o
 .text.sd_ble_gap_phy_update
                0x00000000000f593e        0x4 _build/build-bm68rgb_custom_rev1_THusb/dfu_transport_ble.o
 .text.sd_ble_gap_data_length_update
                0x00000000000f5942        0x4 _build/build-bm68rgb_custom_rev1_THusb/dfu_transport_ble.o
 .text.sd_ble_gatts_service_changed
                0x00000000000f5946        0x4 _build/build-bm68rgb_custom_rev1_THusb/dfu_transport_ble.o
 .text.sd_ble_gatts_rw_authorize_reply
                0x00000000000f594a        0x4 _build/build-bm68rgb_custom_rev1_THusb/dfu_transport_ble.o
 .text.sd_ble_gatts_sys_attr_set
                0x00000000000f594e        0x4 _build/build-bm68rgb_custom_rev1_THusb/dfu_transport_ble.o
 .text.sd_ble_gatts_sys_attr_get
                0x00000000000f5952        0x4 _build/build-bm68rgb_custom_rev1_THusb/dfu_transport_ble.o
 .text.sd_ble_gatts_exchange_mtu_reply
                0x00000000000f5956        0x4 _build/build-bm68rgb_custom_rev1_THusb/dfu_transport_ble.o
 .text.sd_ble_uuid_encode
                0x00000000000f595a        0x4 _build/build-bm68rgb_custom_rev1_THusb/dfu_transport_ble.o
 .text.sd_ble_user_mem_reply
                0x00000000000f595e        0x4 _build/build-bm68rgb_custom_rev1_THusb/dfu_transport_ble.o
 .text.nrf_err_code_translate
                0x00000000000f5962       0x34 _build/build-bm68rgb_custom_rev1_THusb/dfu_transport_ble.o
 .text.service_error_handler
                0x00000000000f5996        0x4 _build/build-bm68rgb_custom_rev1_THusb/dfu_transport_ble.o
 .text.dfu_error_notify
                0x00000000000f599a       0x20 _build/build-bm68rgb_custom_rev1_THusb/dfu_transport_ble.o
 *fill*         0x00000000000f59ba        0x2 
 .text.dfu_cb_handler
                0x00000000000f59bc       0x68 _build/build-bm68rgb_custom_rev1_THusb/dfu_transport_ble.o
 .text.advertising_add.constprop.0
                0x00000000000f5a24       0x30 _build/build-bm68rgb_custom_rev1_THusb/dfu_transport_ble.o
 .text.advertising_start
                0x00000000000f5a54      0x16c _build/build-bm68rgb_custom_rev1_THusb/dfu_transport_ble.o
 .text.ble_evt_dispatch
                0x00000000000f5bc0      0x2d4 _build/build-bm68rgb_custom_rev1_THusb/dfu_transport_ble.o
                0x00000000000f5bc0                ble_evt_dispatch
 .text.dfu_transport_ble_update_start
                0x00000000000f5e94      0x154 _build/build-bm68rgb_custom_rev1_THusb/dfu_transport_ble.o
                0x00000000000f5e94                dfu_transport_ble_update_start
 .text.dfu_transport_ble_close
                0x00000000000f5fe8       0x50 _build/build-bm68rgb_custom_rev1_THusb/dfu_transport_ble.o
                0x00000000000f5fe8                dfu_transport_ble_close
 .text.on_dfu_evt
                0x00000000000f6038      0x268 _build/build-bm68rgb_custom_rev1_THusb/dfu_transport_ble.o
 .text.sd_mbr_command
                0x00000000000f62a0        0x4 _build/build-bm68rgb_custom_rev1_THusb/dfu_single_bank.o
 .text.pstorage_callback_handler
                0x00000000000f62a4       0x68 _build/build-bm68rgb_custom_rev1_THusb/dfu_single_bank.o
 .text.dfu_activate_app
                0x00000000000f630c       0x40 _build/build-bm68rgb_custom_rev1_THusb/dfu_single_bank.o
 .text.dfu_activate_bl
                0x00000000000f634c       0x3c _build/build-bm68rgb_custom_rev1_THusb/dfu_single_bank.o
 .text.dfu_activate_sd
                0x00000000000f6388       0x54 _build/build-bm68rgb_custom_rev1_THusb/dfu_single_bank.o
 .text.dfu_cleared_func_app
                0x00000000000f63dc       0x26 _build/build-bm68rgb_custom_rev1_THusb/dfu_single_bank.o
 *fill*         0x00000000000f6402        0x2 
 .text.dfu_prepare_func_app_erase
                0x00000000000f6404       0x7c _build/build-bm68rgb_custom_rev1_THusb/dfu_single_bank.o
 .text.dfu_sd_img_block_swap
                0x00000000000f6480       0x5c _build/build-bm68rgb_custom_rev1_THusb/dfu_single_bank.o
 .text.dfu_init
                0x00000000000f64dc       0x64 _build/build-bm68rgb_custom_rev1_THusb/dfu_single_bank.o
                0x00000000000f64dc                dfu_init
 .text.dfu_register_callback
                0x00000000000f6540        0xc _build/build-bm68rgb_custom_rev1_THusb/dfu_single_bank.o
                0x00000000000f6540                dfu_register_callback
 .text.dfu_start_pkt_handle
                0x00000000000f654c       0xb4 _build/build-bm68rgb_custom_rev1_THusb/dfu_single_bank.o
                0x00000000000f654c                dfu_start_pkt_handle
 .text.dfu_data_pkt_handle
                0x00000000000f6600       0xd8 _build/build-bm68rgb_custom_rev1_THusb/dfu_single_bank.o
                0x00000000000f6600                dfu_data_pkt_handle
 .text.dfu_init_pkt_complete
                0x00000000000f66d8       0x44 _build/build-bm68rgb_custom_rev1_THusb/dfu_single_bank.o
                0x00000000000f66d8                dfu_init_pkt_complete
 .text.dfu_init_pkt_handle
                0x00000000000f671c       0x58 _build/build-bm68rgb_custom_rev1_THusb/dfu_single_bank.o
                0x00000000000f671c                dfu_init_pkt_handle
 .text.dfu_image_validate
                0x00000000000f6774       0x40 _build/build-bm68rgb_custom_rev1_THusb/dfu_single_bank.o
                0x00000000000f6774                dfu_image_validate
 .text.dfu_image_activate
                0x00000000000f67b4       0x1c _build/build-bm68rgb_custom_rev1_THusb/dfu_single_bank.o
                0x00000000000f67b4                dfu_image_activate
 .text.dfu_reset
                0x00000000000f67d0       0x1c _build/build-bm68rgb_custom_rev1_THusb/dfu_single_bank.o
                0x00000000000f67d0                dfu_reset
 .text.dfu_sd_image_swap
                0x00000000000f67ec       0x98 _build/build-bm68rgb_custom_rev1_THusb/dfu_single_bank.o
                0x00000000000f67ec                dfu_sd_image_swap
 .text.dfu_bl_image_swap
                0x00000000000f6884       0x48 _build/build-bm68rgb_custom_rev1_THusb/dfu_single_bank.o
                0x00000000000f6884                dfu_bl_image_swap
 .text.dfu_bl_image_validate
                0x00000000000f68cc       0x4c _build/build-bm68rgb_custom_rev1_THusb/dfu_single_bank.o
                0x00000000000f68cc                dfu_bl_image_validate
 .text.dfu_sd_image_validate
                0x00000000000f6918       0x64 _build/build-bm68rgb_custom_rev1_THusb/dfu_single_bank.o
                0x00000000000f6918                dfu_sd_image_validate
 .text.sd_ble_gatts_service_add
                0x00000000000f697c        0x4 _build/build-bm68rgb_custom_rev1_THusb/ble_dfu.o
 .text.sd_ble_gatts_characteristic_add
                0x00000000000f6980        0x4 _build/build-bm68rgb_custom_rev1_THusb/ble_dfu.o
 .text.sd_ble_gatts_value_get
                0x00000000000f6984        0x4 _build/build-bm68rgb_custom_rev1_THusb/ble_dfu.o
 .text.sd_ble_gatts_hvx
                0x00000000000f6988        0x4 _build/build-bm68rgb_custom_rev1_THusb/ble_dfu.o
 .text.sd_ble_gatts_rw_authorize_reply
                0x00000000000f698c        0x4 _build/build-bm68rgb_custom_rev1_THusb/ble_dfu.o
 .text.sd_ble_uuid_vs_add
                0x00000000000f6990        0x4 _build/build-bm68rgb_custom_rev1_THusb/ble_dfu.o
 .text.ble_dfu_init
                0x00000000000f6994      0x220 _build/build-bm68rgb_custom_rev1_THusb/ble_dfu.o
                0x00000000000f6994                ble_dfu_init
 .text.ble_dfu_bytes_rcvd_report
                0x00000000000f6bb4       0x78 _build/build-bm68rgb_custom_rev1_THusb/ble_dfu.o
                0x00000000000f6bb4                ble_dfu_bytes_rcvd_report
 .text.ble_dfu_pkts_rcpt_notify
                0x00000000000f6c2c       0x74 _build/build-bm68rgb_custom_rev1_THusb/ble_dfu.o
                0x00000000000f6c2c                ble_dfu_pkts_rcpt_notify
 .text.ble_dfu_response_send
                0x00000000000f6ca0       0x68 _build/build-bm68rgb_custom_rev1_THusb/ble_dfu.o
                0x00000000000f6ca0                ble_dfu_response_send
 .text.ble_dfu_on_ble_evt
                0x00000000000f6d08      0x174 _build/build-bm68rgb_custom_rev1_THusb/ble_dfu.o
                0x00000000000f6d08                ble_dfu_on_ble_evt
 .text.sd_ble_gatts_service_add
                0x00000000000f6e7c        0x4 _build/build-bm68rgb_custom_rev1_THusb/ble_dis.o
 .text.sd_ble_gatts_characteristic_add
                0x00000000000f6e80        0x4 _build/build-bm68rgb_custom_rev1_THusb/ble_dis.o
 .text.char_add
                0x00000000000f6e84       0xac _build/build-bm68rgb_custom_rev1_THusb/ble_dis.o
 .text.ble_dis_init
                0x00000000000f6f30       0xcc _build/build-bm68rgb_custom_rev1_THusb/ble_dis.o
                0x00000000000f6f30                ble_dis_init
 .text.sd_flash_write
                0x00000000000f6ffc        0x4 _build/build-bm68rgb_custom_rev1_THusb/pstorage_raw.o
 .text.sd_flash_page_erase
                0x00000000000f7000        0x4 _build/build-bm68rgb_custom_rev1_THusb/pstorage_raw.o
 .text.cmd_queue_element_init
                0x00000000000f7004       0x20 _build/build-bm68rgb_custom_rev1_THusb/pstorage_raw.o
 .text.app_notify
                0x00000000000f7024       0x24 _build/build-bm68rgb_custom_rev1_THusb/pstorage_raw.o
 .text.cmd_process
                0x00000000000f7048       0x70 _build/build-bm68rgb_custom_rev1_THusb/pstorage_raw.o
 .text.cmd_queue_enqueue
                0x00000000000f70b8       0x54 _build/build-bm68rgb_custom_rev1_THusb/pstorage_raw.o
 .text.pstorage_sys_event_handler
                0x00000000000f710c       0x98 _build/build-bm68rgb_custom_rev1_THusb/pstorage_raw.o
                0x00000000000f710c                pstorage_sys_event_handler
 .text.pstorage_init
                0x00000000000f71a4       0x3c _build/build-bm68rgb_custom_rev1_THusb/pstorage_raw.o
                0x00000000000f71a4                pstorage_init
 .text.pstorage_register
                0x00000000000f71e0       0x24 _build/build-bm68rgb_custom_rev1_THusb/pstorage_raw.o
                0x00000000000f71e0                pstorage_register
 .text.pstorage_store
                0x00000000000f7204       0x20 _build/build-bm68rgb_custom_rev1_THusb/pstorage_raw.o
                0x00000000000f7204                pstorage_store
 .text.pstorage_clear
                0x00000000000f7224       0x16 _build/build-bm68rgb_custom_rev1_THusb/pstorage_raw.o
                0x00000000000f7224                pstorage_clear
 *fill*         0x00000000000f723a        0x2 
 .text.user_op_alloc
                0x00000000000f723c       0x2c _build/build-bm68rgb_custom_rev1_THusb/app_timer.o
 .text.timeout_handler_scheduled_exec
                0x00000000000f7268       0x18 _build/build-bm68rgb_custom_rev1_THusb/app_timer.o
 .text.timer_stop_op_schedule
                0x00000000000f7280       0x50 _build/build-bm68rgb_custom_rev1_THusb/app_timer.o
 .text.nrf_delay_us.part.0.constprop.0
                0x00000000000f72d0       0x8c _build/build-bm68rgb_custom_rev1_THusb/app_timer.o
 .text.rtc1_stop
                0x00000000000f735c       0x44 _build/build-bm68rgb_custom_rev1_THusb/app_timer.o
 .text.RTC1_IRQHandler
                0x00000000000f73a0       0xbc _build/build-bm68rgb_custom_rev1_THusb/app_timer.o
                0x00000000000f73a0                RTC1_IRQHandler
 .text.SWI0_EGU0_IRQHandler
                0x00000000000f745c      0x2d4 _build/build-bm68rgb_custom_rev1_THusb/app_timer.o
                0x00000000000f745c                SWI0_EGU0_IRQHandler
 .text.app_timer_init
                0x00000000000f7730       0x60 _build/build-bm68rgb_custom_rev1_THusb/app_timer.o
                0x00000000000f7730                app_timer_init
 .text.app_timer_create
                0x00000000000f7790       0x24 _build/build-bm68rgb_custom_rev1_THusb/app_timer.o
                0x00000000000f7790                app_timer_create
 .text.app_timer_start
                0x00000000000f77b4       0x90 _build/build-bm68rgb_custom_rev1_THusb/app_timer.o
                0x00000000000f77b4                app_timer_start
 .text.app_timer_stop
                0x00000000000f7844       0x20 _build/build-bm68rgb_custom_rev1_THusb/app_timer.o
                0x00000000000f7844                app_timer_stop
 .text.app_sched_init
                0x00000000000f7864       0x48 _build/build-bm68rgb_custom_rev1_THusb/app_scheduler.o
                0x00000000000f7864                app_sched_init
 .text.app_sched_event_put
                0x00000000000f78ac       0xd0 _build/build-bm68rgb_custom_rev1_THusb/app_scheduler.o
                0x00000000000f78ac                app_sched_event_put
 .text.app_sched_execute
                0x00000000000f797c       0x5c _build/build-bm68rgb_custom_rev1_THusb/app_scheduler.o
                0x00000000000f797c                app_sched_execute
 .text.app_error_handler_bare
                0x00000000000f79d8       0x1c _build/build-bm68rgb_custom_rev1_THusb/app_error.o
                0x00000000000f79d8                app_error_handler_bare
 .text.app_util_critical_region_enter
                0x00000000000f79f4       0x48 _build/build-bm68rgb_custom_rev1_THusb/app_util_platform.o
                0x00000000000f79f4                app_util_critical_region_enter
 .text.app_util_critical_region_exit
                0x00000000000f7a3c       0x2c _build/build-bm68rgb_custom_rev1_THusb/app_util_platform.o
                0x00000000000f7a3c                app_util_critical_region_exit
 .text.crc16_compute
                0x00000000000f7a68       0x36 _build/build-bm68rgb_custom_rev1_THusb/crc16.o
                0x00000000000f7a68                crc16_compute
 *fill*         0x00000000000f7a9e        0x2 
 .text.hci_mem_pool_open
                0x00000000000f7aa0       0x28 _build/build-bm68rgb_custom_rev1_THusb/hci_mem_pool.o
                0x00000000000f7aa0                hci_mem_pool_open
 .text.hci_mem_pool_close
                0x00000000000f7ac8        0x4 _build/build-bm68rgb_custom_rev1_THusb/hci_mem_pool.o
                0x00000000000f7ac8                hci_mem_pool_close
 .text.hci_mem_pool_rx_produce
                0x00000000000f7acc       0x54 _build/build-bm68rgb_custom_rev1_THusb/hci_mem_pool.o
                0x00000000000f7acc                hci_mem_pool_rx_produce
 .text.hci_mem_pool_rx_consume
                0x00000000000f7b20       0x78 _build/build-bm68rgb_custom_rev1_THusb/hci_mem_pool.o
                0x00000000000f7b20                hci_mem_pool_rx_consume
 .text.hci_mem_pool_rx_data_size_set
                0x00000000000f7b98       0x20 _build/build-bm68rgb_custom_rev1_THusb/hci_mem_pool.o
                0x00000000000f7b98                hci_mem_pool_rx_data_size_set
 .text.hci_mem_pool_rx_extract
                0x00000000000f7bb8       0x44 _build/build-bm68rgb_custom_rev1_THusb/hci_mem_pool.o
                0x00000000000f7bb8                hci_mem_pool_rx_extract
 .text.handle_slip_end
                0x00000000000f7bfc       0x40 _build/build-bm68rgb_custom_rev1_THusb/hci_slip.o
 .text.handle_rx_byte_esc
                0x00000000000f7c3c       0x5c _build/build-bm68rgb_custom_rev1_THusb/hci_slip.o
 .text.handle_rx_byte_wait_start
                0x00000000000f7c98       0x14 _build/build-bm68rgb_custom_rev1_THusb/hci_slip.o
 .text.handle_rx_byte_default
                0x00000000000f7cac       0x40 _build/build-bm68rgb_custom_rev1_THusb/hci_slip.o
 .text.serial_put
                0x00000000000f7cec       0x20 _build/build-bm68rgb_custom_rev1_THusb/hci_slip.o
 .text.send_tx_byte_default
                0x00000000000f7d0c       0x24 _build/build-bm68rgb_custom_rev1_THusb/hci_slip.o
 .text.send_tx_byte_end
                0x00000000000f7d30       0x24 _build/build-bm68rgb_custom_rev1_THusb/hci_slip.o
 .text.send_tx_byte_esc
                0x00000000000f7d54       0x1c _build/build-bm68rgb_custom_rev1_THusb/hci_slip.o
 .text.send_tx_byte_encoded
                0x00000000000f7d70       0x44 _build/build-bm68rgb_custom_rev1_THusb/hci_slip.o
 .text.tud_cdc_rx_cb
                0x00000000000f7db4       0x78 _build/build-bm68rgb_custom_rev1_THusb/hci_slip.o
                0x00000000000f7db4                tud_cdc_rx_cb
 .text.hci_slip_evt_handler_register
                0x00000000000f7e2c        0xc _build/build-bm68rgb_custom_rev1_THusb/hci_slip.o
                0x00000000000f7e2c                hci_slip_evt_handler_register
 .text.hci_slip_open
                0x00000000000f7e38       0x14 _build/build-bm68rgb_custom_rev1_THusb/hci_slip.o
                0x00000000000f7e38                hci_slip_open
 .text.hci_slip_close
                0x00000000000f7e4c        0xc _build/build-bm68rgb_custom_rev1_THusb/hci_slip.o
                0x00000000000f7e4c                hci_slip_close
 .text.hci_slip_write
                0x00000000000f7e58       0xd8 _build/build-bm68rgb_custom_rev1_THusb/hci_slip.o
                0x00000000000f7e58                hci_slip_write
 .text.hci_slip_rx_buffer_register
                0x00000000000f7f30       0x2c _build/build-bm68rgb_custom_rev1_THusb/hci_slip.o
                0x00000000000f7f30                hci_slip_rx_buffer_register
 .text.ack_transmit
                0x00000000000f7f5c       0x24 _build/build-bm68rgb_custom_rev1_THusb/hci_transport.o
 .text.tx_sm_event_handle
                0x00000000000f7f80       0xd0 _build/build-bm68rgb_custom_rev1_THusb/hci_transport.o
 .text.slip_event_handle
                0x00000000000f8050      0x198 _build/build-bm68rgb_custom_rev1_THusb/hci_transport.o
                0x00000000000f8050                slip_event_handle
 .text.hci_transport_timeout_handle
                0x00000000000f81e8        0x6 _build/build-bm68rgb_custom_rev1_THusb/hci_transport.o
                0x00000000000f81e8                hci_transport_timeout_handle
 *fill*         0x00000000000f81ee        0x2 
 .text.hci_transport_evt_handler_reg
                0x00000000000f81f0       0x28 _build/build-bm68rgb_custom_rev1_THusb/hci_transport.o
                0x00000000000f81f0                hci_transport_evt_handler_reg
 .text.hci_transport_open
                0x00000000000f8218       0x90 _build/build-bm68rgb_custom_rev1_THusb/hci_transport.o
                0x00000000000f8218                hci_transport_open
 .text.hci_transport_close
                0x00000000000f82a8       0x40 _build/build-bm68rgb_custom_rev1_THusb/hci_transport.o
                0x00000000000f82a8                hci_transport_close
 .text.hci_transport_rx_pkt_extract
                0x00000000000f82e8       0x38 _build/build-bm68rgb_custom_rev1_THusb/hci_transport.o
                0x00000000000f82e8                hci_transport_rx_pkt_extract
 .text.hci_transport_rx_pkt_consume
                0x00000000000f8320        0x6 _build/build-bm68rgb_custom_rev1_THusb/hci_transport.o
                0x00000000000f8320                hci_transport_rx_pkt_consume
 .text.sd_mbr_command
                0x00000000000f8326        0x4 _build/build-bm68rgb_custom_rev1_THusb/msc_uf2.o
 *fill*         0x00000000000f832a        0x2 
 .text.tud_msc_inquiry_cb
                0x00000000000f832c       0x68 _build/build-bm68rgb_custom_rev1_THusb/msc_uf2.o
                0x00000000000f832c                tud_msc_inquiry_cb
 .text.tud_msc_test_unit_ready_cb
                0x00000000000f8394        0x4 _build/build-bm68rgb_custom_rev1_THusb/msc_uf2.o
                0x00000000000f8394                tud_msc_test_unit_ready_cb
 .text.tud_msc_scsi_cb
                0x00000000000f8398       0x24 _build/build-bm68rgb_custom_rev1_THusb/msc_uf2.o
                0x00000000000f8398                tud_msc_scsi_cb
 .text.tud_msc_read10_cb
                0x00000000000f83bc       0x42 _build/build-bm68rgb_custom_rev1_THusb/msc_uf2.o
                0x00000000000f83bc                tud_msc_read10_cb
 *fill*         0x00000000000f83fe        0x2 
 .text.tud_msc_write10_cb
                0x00000000000f8400       0x30 _build/build-bm68rgb_custom_rev1_THusb/msc_uf2.o
                0x00000000000f8400                tud_msc_write10_cb
 .text.tud_msc_write10_complete_cb
                0x00000000000f8430       0xa4 _build/build-bm68rgb_custom_rev1_THusb/msc_uf2.o
                0x00000000000f8430                tud_msc_write10_complete_cb
 .text.tud_msc_capacity_cb
                0x00000000000f84d4       0x10 _build/build-bm68rgb_custom_rev1_THusb/msc_uf2.o
                0x00000000000f84d4                tud_msc_capacity_cb
 .text.tud_msc_start_stop_cb
                0x00000000000f84e4        0x4 _build/build-bm68rgb_custom_rev1_THusb/msc_uf2.o
                0x00000000000f84e4                tud_msc_start_stop_cb
 .text.tud_descriptor_device_cb
                0x00000000000f84e8        0x8 _build/build-bm68rgb_custom_rev1_THusb/usb_desc.o
                0x00000000000f84e8                tud_descriptor_device_cb
 .text.tud_descriptor_configuration_cb
                0x00000000000f84f0       0x20 _build/build-bm68rgb_custom_rev1_THusb/usb_desc.o
                0x00000000000f84f0                tud_descriptor_configuration_cb
 .text.usb_desc_init
                0x00000000000f8510       0x98 _build/build-bm68rgb_custom_rev1_THusb/usb_desc.o
                0x00000000000f8510                usb_desc_init
 .text.tud_descriptor_string_cb
                0x00000000000f85a8       0x60 _build/build-bm68rgb_custom_rev1_THusb/usb_desc.o
                0x00000000000f85a8                tud_descriptor_string_cb
 .text.sd_power_usbpwrrdy_enable
                0x00000000000f8608        0x4 _build/build-bm68rgb_custom_rev1_THusb/usb.o
 .text.sd_power_usbdetected_enable
                0x00000000000f860c        0x4 _build/build-bm68rgb_custom_rev1_THusb/usb.o
 .text.sd_power_usbremoved_enable
                0x00000000000f8610        0x4 _build/build-bm68rgb_custom_rev1_THusb/usb.o
 .text.sd_power_usbregstatus_get
                0x00000000000f8614        0x4 _build/build-bm68rgb_custom_rev1_THusb/usb.o
 .text.sd_softdevice_is_enabled
                0x00000000000f8618        0x4 _build/build-bm68rgb_custom_rev1_THusb/usb.o
 .text.USBD_IRQHandler
                0x00000000000f861c        0x6 _build/build-bm68rgb_custom_rev1_THusb/usb.o
                0x00000000000f861c                USBD_IRQHandler
 *fill*         0x00000000000f8622        0x2 
 .text.usb_init
                0x00000000000f8624       0xa0 _build/build-bm68rgb_custom_rev1_THusb/usb.o
                0x00000000000f8624                usb_init
 .text.usb_teardown
                0x00000000000f86c4        0x6 _build/build-bm68rgb_custom_rev1_THusb/usb.o
                0x00000000000f86c4                usb_teardown
 .text.tud_mount_cb
                0x00000000000f86ca        0x6 _build/build-bm68rgb_custom_rev1_THusb/usb.o
                0x00000000000f86ca                tud_mount_cb
 .text.tud_umount_cb
                0x00000000000f86d0        0x6 _build/build-bm68rgb_custom_rev1_THusb/usb.o
                0x00000000000f86d0                tud_umount_cb
 *fill*         0x00000000000f86d6        0x2 
 .text.uf2_init
                0x00000000000f86d8       0xe4 _build/build-bm68rgb_custom_rev1_THusb/ghostfat.o
                0x00000000000f86d8                uf2_init
 .text.padded_memcpy
                0x00000000000f87bc       0x1c _build/build-bm68rgb_custom_rev1_THusb/ghostfat.o
                0x00000000000f87bc                padded_memcpy
 .text.read_block
                0x00000000000f87d8      0x1ac _build/build-bm68rgb_custom_rev1_THusb/ghostfat.o
                0x00000000000f87d8                read_block
 .text.write_block
                0x00000000000f8984      0x1b0 _build/build-bm68rgb_custom_rev1_THusb/ghostfat.o
                0x00000000000f8984                write_block
 .text.nrfx_usbd_errata_187
                0x00000000000f8b34       0x20 _build/build-bm68rgb_custom_rev1_THusb/dcd_nrf5x.o
 .text.start_dma
                0x00000000000f8b54       0x30 _build/build-bm68rgb_custom_rev1_THusb/dcd_nrf5x.o
 .text.sd_clock_hfclk_request
                0x00000000000f8b84        0x4 _build/build-bm68rgb_custom_rev1_THusb/dcd_nrf5x.o
 .text.sd_clock_hfclk_release
                0x00000000000f8b88        0x4 _build/build-bm68rgb_custom_rev1_THusb/dcd_nrf5x.o
 .text.sd_clock_hfclk_is_running
                0x00000000000f8b8c        0x4 _build/build-bm68rgb_custom_rev1_THusb/dcd_nrf5x.o
 .text.sd_softdevice_is_enabled
                0x00000000000f8b90        0x4 _build/build-bm68rgb_custom_rev1_THusb/dcd_nrf5x.o
 .text.edpt_dma_start
                0x00000000000f8b94       0x60 _build/build-bm68rgb_custom_rev1_THusb/dcd_nrf5x.o
 .text.xact_in_dma
                0x00000000000f8bf4       0x40 _build/build-bm68rgb_custom_rev1_THusb/dcd_nrf5x.o
 .text.is_sd_enabled
                0x00000000000f8c34       0x30 _build/build-bm68rgb_custom_rev1_THusb/dcd_nrf5x.o
 .text.hfclk_running
                0x00000000000f8c64       0x36 _build/build-bm68rgb_custom_rev1_THusb/dcd_nrf5x.o
 *fill*         0x00000000000f8c9a        0x2 
 .text.xact_out_dma.part.0
                0x00000000000f8c9c       0x2c _build/build-bm68rgb_custom_rev1_THusb/dcd_nrf5x.o
 .text.xact_out_dma
                0x00000000000f8cc8       0x58 _build/build-bm68rgb_custom_rev1_THusb/dcd_nrf5x.o
 .text.dcd_init
                0x00000000000f8d20        0x2 _build/build-bm68rgb_custom_rev1_THusb/dcd_nrf5x.o
                0x00000000000f8d20                dcd_init
 *fill*         0x00000000000f8d22        0x2 
 .text.dcd_int_enable
                0x00000000000f8d24        0xc _build/build-bm68rgb_custom_rev1_THusb/dcd_nrf5x.o
                0x00000000000f8d24                dcd_int_enable
 .text.dcd_int_disable
                0x00000000000f8d30       0x10 _build/build-bm68rgb_custom_rev1_THusb/dcd_nrf5x.o
                0x00000000000f8d30                dcd_int_disable
 .text.dcd_set_address
                0x00000000000f8d40       0x24 _build/build-bm68rgb_custom_rev1_THusb/dcd_nrf5x.o
                0x00000000000f8d40                dcd_set_address
 .text.dcd_edpt_open
                0x00000000000f8d64      0x114 _build/build-bm68rgb_custom_rev1_THusb/dcd_nrf5x.o
                0x00000000000f8d64                dcd_edpt_open
 .text.dcd_edpt_close_all
                0x00000000000f8e78       0x8c _build/build-bm68rgb_custom_rev1_THusb/dcd_nrf5x.o
                0x00000000000f8e78                dcd_edpt_close_all
 .text.dcd_edpt_xfer
                0x00000000000f8f04       0x9c _build/build-bm68rgb_custom_rev1_THusb/dcd_nrf5x.o
                0x00000000000f8f04                dcd_edpt_xfer
 .text.dcd_edpt_stall
                0x00000000000f8fa0       0x48 _build/build-bm68rgb_custom_rev1_THusb/dcd_nrf5x.o
                0x00000000000f8fa0                dcd_edpt_stall
 .text.dcd_edpt_clear_stall
                0x00000000000f8fe8       0x34 _build/build-bm68rgb_custom_rev1_THusb/dcd_nrf5x.o
                0x00000000000f8fe8                dcd_edpt_clear_stall
 .text.bus_reset
                0x00000000000f901c       0x6c _build/build-bm68rgb_custom_rev1_THusb/dcd_nrf5x.o
                0x00000000000f901c                bus_reset
 .text.dcd_int_handler
                0x00000000000f9088      0x324 _build/build-bm68rgb_custom_rev1_THusb/dcd_nrf5x.o
                0x00000000000f9088                dcd_int_handler
 .text.tusb_hal_nrf_power_event
                0x00000000000f93ac      0x204 _build/build-bm68rgb_custom_rev1_THusb/dcd_nrf5x.o
                0x00000000000f93ac                tusb_hal_nrf_power_event
 .text.advance_pointer
                0x00000000000f95b0       0x18 _build/build-bm68rgb_custom_rev1_THusb/tusb_fifo.o
 .text._tu_fifo_correct_read_pointer
                0x00000000000f95c8       0x1e _build/build-bm68rgb_custom_rev1_THusb/tusb_fifo.o
 .text._ff_pull_const_addr
                0x00000000000f95e6       0x2e _build/build-bm68rgb_custom_rev1_THusb/tusb_fifo.o
 .text._tu_fifo_peek_n
                0x00000000000f9614      0x122 _build/build-bm68rgb_custom_rev1_THusb/tusb_fifo.o
 .text._ff_push_const_addr
                0x00000000000f9736       0x28 _build/build-bm68rgb_custom_rev1_THusb/tusb_fifo.o
 .text._tu_fifo_peek
                0x00000000000f975e       0x4c _build/build-bm68rgb_custom_rev1_THusb/tusb_fifo.o
 .text._tu_fifo_write_n.part.0
                0x00000000000f97aa      0x12a _build/build-bm68rgb_custom_rev1_THusb/tusb_fifo.o
 .text.tu_fifo_config
                0x00000000000f98d4       0x2c _build/build-bm68rgb_custom_rev1_THusb/tusb_fifo.o
                0x00000000000f98d4                tu_fifo_config
 .text.tu_fifo_count
                0x00000000000f9900       0x24 _build/build-bm68rgb_custom_rev1_THusb/tusb_fifo.o
                0x00000000000f9900                tu_fifo_count
 .text.tu_fifo_empty
                0x00000000000f9924       0x10 _build/build-bm68rgb_custom_rev1_THusb/tusb_fifo.o
                0x00000000000f9924                tu_fifo_empty
 .text.tu_fifo_remaining
                0x00000000000f9934       0x24 _build/build-bm68rgb_custom_rev1_THusb/tusb_fifo.o
                0x00000000000f9934                tu_fifo_remaining
 .text.tu_fifo_read
                0x00000000000f9958       0x24 _build/build-bm68rgb_custom_rev1_THusb/tusb_fifo.o
                0x00000000000f9958                tu_fifo_read
 .text.tu_fifo_read_n
                0x00000000000f997c       0x2c _build/build-bm68rgb_custom_rev1_THusb/tusb_fifo.o
                0x00000000000f997c                tu_fifo_read_n
 .text.tu_fifo_write
                0x00000000000f99a8       0x54 _build/build-bm68rgb_custom_rev1_THusb/tusb_fifo.o
                0x00000000000f99a8                tu_fifo_write
 .text.tu_fifo_write_n
                0x00000000000f99fc        0xc _build/build-bm68rgb_custom_rev1_THusb/tusb_fifo.o
                0x00000000000f99fc                tu_fifo_write_n
 .text.tu_fifo_clear
                0x00000000000f9a08       0x18 _build/build-bm68rgb_custom_rev1_THusb/tusb_fifo.o
                0x00000000000f9a08                tu_fifo_clear
 .text.tu_fifo_set_overwritable
                0x00000000000f9a20        0x6 _build/build-bm68rgb_custom_rev1_THusb/tusb_fifo.o
                0x00000000000f9a20                tu_fifo_set_overwritable
 *fill*         0x00000000000f9a26        0x2 
 .text.get_driver
                0x00000000000f9a28       0x40 _build/build-bm68rgb_custom_rev1_THusb/usbd.o
 .text.configuration_reset
                0x00000000000f9a68       0x54 _build/build-bm68rgb_custom_rev1_THusb/usbd.o
 .text.invoke_class_control
                0x00000000000f9abc       0x1e _build/build-bm68rgb_custom_rev1_THusb/usbd.o
 .text.osal_queue_send.isra.0
                0x00000000000f9ada       0x42 _build/build-bm68rgb_custom_rev1_THusb/usbd.o
 .text.tud_mounted
                0x00000000000f9b1c       0x10 _build/build-bm68rgb_custom_rev1_THusb/usbd.o
                0x00000000000f9b1c                tud_mounted
 .text.tud_suspended
                0x00000000000f9b2c       0x10 _build/build-bm68rgb_custom_rev1_THusb/usbd.o
                0x00000000000f9b2c                tud_suspended
 .text.tud_inited
                0x00000000000f9b3c        0xc _build/build-bm68rgb_custom_rev1_THusb/usbd.o
                0x00000000000f9b3c                tud_inited
 .text.tud_init
                0x00000000000f9b48       0x78 _build/build-bm68rgb_custom_rev1_THusb/usbd.o
                0x00000000000f9b48                tud_init
 .text.dcd_event_handler
                0x00000000000f9bc0       0xa0 _build/build-bm68rgb_custom_rev1_THusb/usbd.o
                0x00000000000f9bc0                dcd_event_handler
 .text.dcd_event_bus_signal
                0x00000000000f9c60       0x20 _build/build-bm68rgb_custom_rev1_THusb/usbd.o
                0x00000000000f9c60                dcd_event_bus_signal
 .text.dcd_event_bus_reset
                0x00000000000f9c80       0x26 _build/build-bm68rgb_custom_rev1_THusb/usbd.o
                0x00000000000f9c80                dcd_event_bus_reset
 .text.dcd_event_setup_received
                0x00000000000f9ca6       0x2c _build/build-bm68rgb_custom_rev1_THusb/usbd.o
                0x00000000000f9ca6                dcd_event_setup_received
 .text.dcd_event_xfer_complete
                0x00000000000f9cd2       0x2a _build/build-bm68rgb_custom_rev1_THusb/usbd.o
                0x00000000000f9cd2                dcd_event_xfer_complete
 .text.usbd_defer_func
                0x00000000000f9cfc       0x1a _build/build-bm68rgb_custom_rev1_THusb/usbd.o
                0x00000000000f9cfc                usbd_defer_func
 *fill*         0x00000000000f9d16        0x2 
 .text.usbd_edpt_open
                0x00000000000f9d18       0x40 _build/build-bm68rgb_custom_rev1_THusb/usbd.o
                0x00000000000f9d18                usbd_edpt_open
 .text.usbd_open_edpt_pair
                0x00000000000f9d58       0x6c _build/build-bm68rgb_custom_rev1_THusb/usbd.o
                0x00000000000f9d58                usbd_open_edpt_pair
 .text.usbd_edpt_claim
                0x00000000000f9dc4       0x34 _build/build-bm68rgb_custom_rev1_THusb/usbd.o
                0x00000000000f9dc4                usbd_edpt_claim
 .text.usbd_edpt_release
                0x00000000000f9df8       0x34 _build/build-bm68rgb_custom_rev1_THusb/usbd.o
                0x00000000000f9df8                usbd_edpt_release
 .text.usbd_edpt_xfer
                0x00000000000f9e2c       0x60 _build/build-bm68rgb_custom_rev1_THusb/usbd.o
                0x00000000000f9e2c                usbd_edpt_xfer
 .text.usbd_edpt_busy
                0x00000000000f9e8c       0x1c _build/build-bm68rgb_custom_rev1_THusb/usbd.o
                0x00000000000f9e8c                usbd_edpt_busy
 .text.usbd_edpt_stall
                0x00000000000f9ea8       0x34 _build/build-bm68rgb_custom_rev1_THusb/usbd.o
                0x00000000000f9ea8                usbd_edpt_stall
 .text.usbd_edpt_clear_stall
                0x00000000000f9edc       0x34 _build/build-bm68rgb_custom_rev1_THusb/usbd.o
                0x00000000000f9edc                usbd_edpt_clear_stall
 .text.usbd_edpt_stalled
                0x00000000000f9f10       0x1c _build/build-bm68rgb_custom_rev1_THusb/usbd.o
                0x00000000000f9f10                usbd_edpt_stalled
 .text.tud_task
                0x00000000000f9f2c      0x5dc _build/build-bm68rgb_custom_rev1_THusb/usbd.o
                0x00000000000f9f2c                tud_task
 .text._data_stage_xact
                0x00000000000fa508       0x5c _build/build-bm68rgb_custom_rev1_THusb/usbd_control.o
 .text._status_stage_xact.isra.0
                0x00000000000fa564       0x14 _build/build-bm68rgb_custom_rev1_THusb/usbd_control.o
 .text.tud_control_status
                0x00000000000fa578       0x24 _build/build-bm68rgb_custom_rev1_THusb/usbd_control.o
                0x00000000000fa578                tud_control_status
 .text.tud_control_xfer
                0x00000000000fa59c       0x68 _build/build-bm68rgb_custom_rev1_THusb/usbd_control.o
                0x00000000000fa59c                tud_control_xfer
 .text.usbd_control_reset
                0x00000000000fa604       0x10 _build/build-bm68rgb_custom_rev1_THusb/usbd_control.o
                0x00000000000fa604                usbd_control_reset
 .text.usbd_control_set_complete_callback
                0x00000000000fa614        0xc _build/build-bm68rgb_custom_rev1_THusb/usbd_control.o
                0x00000000000fa614                usbd_control_set_complete_callback
 .text.usbd_control_set_request
                0x00000000000fa620       0x1c _build/build-bm68rgb_custom_rev1_THusb/usbd_control.o
                0x00000000000fa620                usbd_control_set_request
 .text.usbd_control_xfer_cb
                0x00000000000fa63c       0xc4 _build/build-bm68rgb_custom_rev1_THusb/usbd_control.o
                0x00000000000fa63c                usbd_control_xfer_cb
 .text._prep_out_transaction.isra.0
                0x00000000000fa700       0x44 _build/build-bm68rgb_custom_rev1_THusb/cdc_device.o
 .text.tud_cdc_n_available
                0x00000000000fa744       0x18 _build/build-bm68rgb_custom_rev1_THusb/cdc_device.o
                0x00000000000fa744                tud_cdc_n_available
 .text.tud_cdc_n_read
                0x00000000000fa75c       0x28 _build/build-bm68rgb_custom_rev1_THusb/cdc_device.o
                0x00000000000fa75c                tud_cdc_n_read
 .text.tud_cdc_n_write_flush
                0x00000000000fa784       0x80 _build/build-bm68rgb_custom_rev1_THusb/cdc_device.o
                0x00000000000fa784                tud_cdc_n_write_flush
 .text.tud_cdc_n_write
                0x00000000000fa804       0x34 _build/build-bm68rgb_custom_rev1_THusb/cdc_device.o
                0x00000000000fa804                tud_cdc_n_write
 .text.cdcd_init
                0x00000000000fa838       0x58 _build/build-bm68rgb_custom_rev1_THusb/cdc_device.o
                0x00000000000fa838                cdcd_init
 .text.cdcd_reset
                0x00000000000fa890       0x30 _build/build-bm68rgb_custom_rev1_THusb/cdc_device.o
                0x00000000000fa890                cdcd_reset
 .text.cdcd_open
                0x00000000000fa8c0       0xa4 _build/build-bm68rgb_custom_rev1_THusb/cdc_device.o
                0x00000000000fa8c0                cdcd_open
 .text.cdcd_control_xfer_cb
                0x00000000000fa964       0xb8 _build/build-bm68rgb_custom_rev1_THusb/cdc_device.o
                0x00000000000fa964                cdcd_control_xfer_cb
 .text.cdcd_xfer_cb
                0x00000000000faa1c       0xfc _build/build-bm68rgb_custom_rev1_THusb/cdc_device.o
                0x00000000000faa1c                cdcd_xfer_cb
 .text.fail_scsi_op.constprop.0
                0x00000000000fab18       0x48 _build/build-bm68rgb_custom_rev1_THusb/msc_device.o
 .text.proc_write10_cmd.constprop.0
                0x00000000000fab60       0x64 _build/build-bm68rgb_custom_rev1_THusb/msc_device.o
 .text.proc_read10_cmd.constprop.0
                0x00000000000fabc4       0x98 _build/build-bm68rgb_custom_rev1_THusb/msc_device.o
 .text.rdwr10_validate_cmd
                0x00000000000fac5c       0x3e _build/build-bm68rgb_custom_rev1_THusb/msc_device.o
                0x00000000000fac5c                rdwr10_validate_cmd
 *fill*         0x00000000000fac9a        0x2 
 .text.tud_msc_set_sense
                0x00000000000fac9c       0x18 _build/build-bm68rgb_custom_rev1_THusb/msc_device.o
                0x00000000000fac9c                tud_msc_set_sense
 .text.mscd_init
                0x00000000000facb4       0x10 _build/build-bm68rgb_custom_rev1_THusb/msc_device.o
                0x00000000000facb4                mscd_init
 .text.mscd_reset
                0x00000000000facc4       0x10 _build/build-bm68rgb_custom_rev1_THusb/msc_device.o
                0x00000000000facc4                mscd_reset
 .text.mscd_open
                0x00000000000facd4       0x90 _build/build-bm68rgb_custom_rev1_THusb/msc_device.o
                0x00000000000facd4                mscd_open
 .text.mscd_control_xfer_cb
                0x00000000000fad64      0x11c _build/build-bm68rgb_custom_rev1_THusb/msc_device.o
                0x00000000000fad64                mscd_control_xfer_cb
 .text.mscd_xfer_cb
                0x00000000000fae80      0x4c0 _build/build-bm68rgb_custom_rev1_THusb/msc_device.o
                0x00000000000fae80                mscd_xfer_cb
 .text.tusb_init
                0x00000000000fb340       0x1a _build/build-bm68rgb_custom_rev1_THusb/tusb.o
                0x00000000000fb340                tusb_init
 .text.tusb_inited
                0x00000000000fb35a        0x4 _build/build-bm68rgb_custom_rev1_THusb/tusb.o
                0x00000000000fb35a                tusb_inited
 .text.tu_edpt_validate
                0x00000000000fb35e       0x60 _build/build-bm68rgb_custom_rev1_THusb/tusb.o
                0x00000000000fb35e                tu_edpt_validate
 .text.tu_edpt_bind_driver
                0x00000000000fb3be       0x24 _build/build-bm68rgb_custom_rev1_THusb/tusb.o
                0x00000000000fb3be                tu_edpt_bind_driver
 *fill*         0x00000000000fb3e2        0x2 
 .text          0x00000000000fb3e4       0x3c _build/build-bm68rgb_custom_rev1_THusb/gcc_startup_nrf52840.o
                0x00000000000fb3e4                Reset_Handler
                0x00000000000fb40c                NMI_Handler
                0x00000000000fb40e                HardFault_Handler
                0x00000000000fb410                MemoryManagement_Handler
                0x00000000000fb412                BusFault_Handler
                0x00000000000fb414                UsageFault_Handler
                0x00000000000fb418                DebugMon_Handler
                0x00000000000fb41a                PendSV_Handler
                0x00000000000fb41e                TIMER2_IRQHandler
                0x00000000000fb41e                RTC0_IRQHandler
                0x00000000000fb41e                GPIOTE_IRQHandler
                0x00000000000fb41e                PWM1_IRQHandler
                0x00000000000fb41e                RADIO_IRQHandler
                0x00000000000fb41e                PDM_IRQHandler
                0x00000000000fb41e                TEMP_IRQHandler
                0x00000000000fb41e                QDEC_IRQHandler
                0x00000000000fb41e                TIMER3_IRQHandler
                0x00000000000fb41e                PWM3_IRQHandler
                0x00000000000fb41e                FPU_IRQHandler
                0x00000000000fb41e                SPIM0_SPIS0_TWIM0_TWIS0_SPI0_TWI0_IRQHandler
                0x00000000000fb41e                UARTE0_UART0_IRQHandler
                0x00000000000fb41e                TIMER4_IRQHandler
                0x00000000000fb41e                CRYPTOCELL_IRQHandler
                0x00000000000fb41e                I2S_IRQHandler
                0x00000000000fb41e                SWI4_EGU4_IRQHandler
                0x00000000000fb41e                TIMER0_IRQHandler
                0x00000000000fb41e                UARTE1_IRQHandler
                0x00000000000fb41e                TIMER1_IRQHandler
                0x00000000000fb41e                SPIM3_IRQHandler
                0x00000000000fb41e                PWM2_IRQHandler
                0x00000000000fb41e                ECB_IRQHandler
                0x00000000000fb41e                SPIM1_SPIS1_TWIM1_TWIS1_SPI1_TWI1_IRQHandler
                0x00000000000fb41e                Default_Handler
                0x00000000000fb41e                SAADC_IRQHandler
                0x00000000000fb41e                CCM_AAR_IRQHandler
                0x00000000000fb41e                WDT_IRQHandler
                0x00000000000fb41e                SWI5_EGU5_IRQHandler
                0x00000000000fb41e                RNG_IRQHandler
                0x00000000000fb41e                RTC2_IRQHandler
                0x00000000000fb41e                PWM0_IRQHandler
                0x00000000000fb41e                SWI3_EGU3_IRQHandler
                0x00000000000fb41e                SWI1_EGU1_IRQHandler
                0x00000000000fb41e                SPIM2_SPIS2_SPI2_IRQHandler
                0x00000000000fb41e                NFCT_IRQHandler
                0x00000000000fb41e                MWU_IRQHandler
                0x00000000000fb41e                QSPI_IRQHandler
                0x00000000000fb41e                COMP_LPCOMP_IRQHandler
 .text.memcmp   0x00000000000fb420       0x20 /usr/share/gcc-arm-none-eabi-10-2020-q4-major/bin/../lib/gcc/arm-none-eabi/10.2.1/../../../../arm-none-eabi/lib/thumb/v7e-m+fp/hard/libc_nano.a(lib_a-memcmp.o)
                0x00000000000fb420                memcmp
 .text.memcpy   0x00000000000fb440       0x1c /usr/share/gcc-arm-none-eabi-10-2020-q4-major/bin/../lib/gcc/arm-none-eabi/10.2.1/../../../../arm-none-eabi/lib/thumb/v7e-m+fp/hard/libc_nano.a(lib_a-memcpy-stub.o)
                0x00000000000fb440                memcpy
 .text.memmove  0x00000000000fb45c       0x34 /usr/share/gcc-arm-none-eabi-10-2020-q4-major/bin/../lib/gcc/arm-none-eabi/10.2.1/../../../../arm-none-eabi/lib/thumb/v7e-m+fp/hard/libc_nano.a(lib_a-memmove.o)
                0x00000000000fb45c                memmove
 .text.strcat   0x00000000000fb490       0x1e /usr/share/gcc-arm-none-eabi-10-2020-q4-major/bin/../lib/gcc/arm-none-eabi/10.2.1/../../../../arm-none-eabi/lib/thumb/v7e-m+fp/hard/libc_nano.a(lib_a-strcat.o)
                0x00000000000fb490                strcat
 .text          0x00000000000fb4ae       0x10 /usr/share/gcc-arm-none-eabi-10-2020-q4-major/bin/../lib/gcc/arm-none-eabi/10.2.1/../../../../arm-none-eabi/lib/thumb/v7e-m+fp/hard/libc_nano.a(lib_a-strlen.o)
                0x00000000000fb4ae                strlen
 *fill*         0x00000000000fb4be        0x2 
 .text.__utoa   0x00000000000fb4c0       0x84 /usr/share/gcc-arm-none-eabi-10-2020-q4-major/bin/../lib/gcc/arm-none-eabi/10.2.1/../../../../arm-none-eabi/lib/thumb/v7e-m+fp/hard/libc_nano.a(lib_a-utoa.o)
                0x00000000000fb4c0                __utoa
 .text.utoa     0x00000000000fb544        0x4 /usr/share/gcc-arm-none-eabi-10-2020-q4-major/bin/../lib/gcc/arm-none-eabi/10.2.1/../../../../arm-none-eabi/lib/thumb/v7e-m+fp/hard/libc_nano.a(lib_a-utoa.o)
                0x00000000000fb544                utoa
 .text          0x00000000000fb548       0x30 /usr/share/gcc-arm-none-eabi-10-2020-q4-major/bin/../lib/gcc/arm-none-eabi/10.2.1/thumb/v7e-m+fp/hard/libgcc.a(_aeabi_uldivmod.o)
                0x00000000000fb548                __aeabi_uldivmod
 .text          0x00000000000fb578      0x2d0 /usr/share/gcc-arm-none-eabi-10-2020-q4-major/bin/../lib/gcc/arm-none-eabi/10.2.1/thumb/v7e-m+fp/hard/libgcc.a(_udivmoddi4.o)
                0x00000000000fb578                __udivmoddi4
 .text          0x00000000000fb848        0x4 /usr/share/gcc-arm-none-eabi-10-2020-q4-major/bin/../lib/gcc/arm-none-eabi/10.2.1/thumb/v7e-m+fp/hard/libgcc.a(_dvmd_tls.o)
                0x00000000000fb848                __aeabi_ldiv0
                0x00000000000fb848                __aeabi_idiv0
 *(.init)
 .init          0x00000000000fb84c        0x4 /usr/share/gcc-arm-none-eabi-10-2020-q4-major/bin/../lib/gcc/arm-none-eabi/10.2.1/thumb/v7e-m+fp/hard/crti.o
                0x00000000000fb84c                _init
 .init          0x00000000000fb850        0x8 /usr/share/gcc-arm-none-eabi-10-2020-q4-major/bin/../lib/gcc/arm-none-eabi/10.2.1/thumb/v7e-m+fp/hard/crtn.o
 *(.fini)
 .fini          0x00000000000fb858        0x4 /usr/share/gcc-arm-none-eabi-10-2020-q4-major/bin/../lib/gcc/arm-none-eabi/10.2.1/thumb/v7e-m+fp/hard/crti.o
                0x00000000000fb858                _fini
 .fini          0x00000000000fb85c        0x8 /usr/share/gcc-arm-none-eabi-10-2020-q4-major/bin/../lib/gcc/arm-none-eabi/10.2.1/thumb/v7e-m+fp/hard/crtn.o
 *crtbegin.o(.ctors)
 *crtbegin?.o(.ctors)
 *(EXCLUDE_FILE(*crtend.o *crtend?.o) .ctors)
 *(SORT_BY_NAME(.ctors.*))
 *(.ctors)
 *crtbegin.o(.dtors)
 *crtbegin?.o(.dtors)
 *(EXCLUDE_FILE(*crtend.o *crtend?.o) .dtors)
 *(SORT_BY_NAME(.dtors.*))
 *(.dtors)
 *(.rodata*)
 .rodata._global_impure_ptr
                0x00000000000fb864        0x4 /usr/share/gcc-arm-none-eabi-10-2020-q4-major/bin/../lib/gcc/arm-none-eabi/10.2.1/../../../../arm-none-eabi/lib/thumb/v7e-m+fp/hard/libc.a(lib_a-impure.o)
                0x00000000000fb864                _global_impure_ptr
 .rodata        0x00000000000fb868        0x4 _build/build-bm68rgb_custom_rev1_THusb/main.o
 *fill*         0x00000000000fb86c        0x4 
 .rodata.delay_machine_code.0
                0x00000000000fb870        0x6 _build/build-bm68rgb_custom_rev1_THusb/main.o
 *fill*         0x00000000000fb876        0xa 
 .rodata.delay_machine_code.0
                0x00000000000fb880        0x6 _build/build-bm68rgb_custom_rev1_THusb/boards.o
 .rodata.CSWTCH.7
                0x00000000000fb886        0x4 _build/build-bm68rgb_custom_rev1_THusb/system_nrf52840.o
 *fill*         0x00000000000fb88a        0x2 
 .rodata._dfu_startup_timer
                0x00000000000fb88c        0x4 _build/build-bm68rgb_custom_rev1_THusb/bootloader.o
 .rodata.delay_machine_code.0
                0x00000000000fb890        0x6 _build/build-bm68rgb_custom_rev1_THusb/bootloader.o
 .rodata.advertising_start.str1.1
                0x00000000000fb896        0x7 _build/build-bm68rgb_custom_rev1_THusb/dfu_transport_ble.o
 .rodata.dfu_transport_ble_update_start.str1.1
                0x00000000000fb89d       0x46 _build/build-bm68rgb_custom_rev1_THusb/dfu_transport_ble.o
 .rodata        0x00000000000fb8e3       0x10 _build/build-bm68rgb_custom_rev1_THusb/dfu_transport_ble.o
 .rodata        0x00000000000fb8f3       0x10 _build/build-bm68rgb_custom_rev1_THusb/ble_dfu.o
 *fill*         0x00000000000fb903        0x1 
 .rodata.m_app_timer_id
                0x00000000000fb904        0x4 _build/build-bm68rgb_custom_rev1_THusb/hci_transport.o
 .rodata.tud_msc_inquiry_cb.str1.1
                0x00000000000fb908       0x11 _build/build-bm68rgb_custom_rev1_THusb/msc_uf2.o
 .rodata.usb_desc_init.str1.1
                0x00000000000fb919       0x11 _build/build-bm68rgb_custom_rev1_THusb/usb_desc.o
 .rodata.str1.1
                0x00000000000fb92a        0xb _build/build-bm68rgb_custom_rev1_THusb/usb_desc.o
                                         0x3c (size before relaxing)
 .rodata.__compound_literal.0
                0x00000000000fb935        0x2 _build/build-bm68rgb_custom_rev1_THusb/usb_desc.o
 .rodata.uf2_init.str1.1
                0x00000000000fb937       0x1d _build/build-bm68rgb_custom_rev1_THusb/ghostfat.o
                                         0x22 (size before relaxing)
 .rodata.BootBlock
                0x00000000000fb954       0x3e _build/build-bm68rgb_custom_rev1_THusb/ghostfat.o
 .rodata.indexFile
                0x00000000000fb992       0x54 _build/build-bm68rgb_custom_rev1_THusb/ghostfat.o
                0x00000000000fb992                indexFile
 *fill*         0x00000000000fb9e6        0x2 
 .rodata.info   0x00000000000fb9e8       0x30 _build/build-bm68rgb_custom_rev1_THusb/ghostfat.o
 .rodata._usbd_driver
                0x00000000000fba18       0x30 _build/build-bm68rgb_custom_rev1_THusb/usbd.o
 .rodata.__utoa.str1.1
                0x00000000000fba48       0x25 /usr/share/gcc-arm-none-eabi-10-2020-q4-major/bin/../lib/gcc/arm-none-eabi/10.2.1/../../../../arm-none-eabi/lib/thumb/v7e-m+fp/hard/libc_nano.a(lib_a-utoa.o)
 *(.eh_frame*)
 *fill*         0x00000000000fba6d        0x3 
 .eh_frame      0x00000000000fba70        0x0 /usr/share/gcc-arm-none-eabi-10-2020-q4-major/bin/../lib/gcc/arm-none-eabi/10.2.1/thumb/v7e-m+fp/hard/crtbegin.o
 .eh_frame      0x00000000000fba70        0x4 /usr/share/gcc-arm-none-eabi-10-2020-q4-major/bin/../lib/gcc/arm-none-eabi/10.2.1/thumb/v7e-m+fp/hard/crtend.o

.glue_7         0x00000000000fba74        0x0
 .glue_7        0x00000000000fba74        0x0 linker stubs

.glue_7t        0x00000000000fba74        0x0
 .glue_7t       0x00000000000fba74        0x0 linker stubs

.vfp11_veneer   0x00000000000fba74        0x0
 .vfp11_veneer  0x00000000000fba74        0x0 linker stubs

.v4_bx          0x00000000000fba74        0x0
 .v4_bx         0x00000000000fba74        0x0 linker stubs

.iplt           0x00000000000fba74        0x0
 .iplt          0x00000000000fba74        0x0 /usr/share/gcc-arm-none-eabi-10-2020-q4-major/bin/../lib/gcc/arm-none-eabi/10.2.1/thumb/v7e-m+fp/hard/crtbegin.o

.ARM.extab
 *(.ARM.extab* .gnu.linkonce.armextab.*)
                0x00000000000fba74                __exidx_start = .

.ARM.exidx      0x00000000000fba74        0x8
 *(.ARM.exidx* .gnu.linkonce.armexidx.*)
 .ARM.exidx     0x00000000000fba74        0x8 /usr/share/gcc-arm-none-eabi-10-2020-q4-major/bin/../lib/gcc/arm-none-eabi/10.2.1/../../../../arm-none-eabi/lib/thumb/v7e-m+fp/hard/crt0.o
                                         0x10 (size before relaxing)
 .ARM.exidx     0x00000000000fba7c        0x0 /usr/share/gcc-arm-none-eabi-10-2020-q4-major/bin/../lib/gcc/arm-none-eabi/10.2.1/thumb/v7e-m+fp/hard/libgcc.a(_udivmoddi4.o)
                                          0x8 (size before relaxing)
                0x00000000000fba7c                __exidx_end = .
                0x00000000000fba7c                __etext = .

.rel.dyn        0x00000000000fba7c        0x0
 .rel.iplt      0x00000000000fba7c        0x0 /usr/share/gcc-arm-none-eabi-10-2020-q4-major/bin/../lib/gcc/arm-none-eabi/10.2.1/thumb/v7e-m+fp/hard/crtbegin.o

.data           0x0000000020008000      0x6c4 load address 0x00000000000fba7c
                0x0000000020008000                __data_start__ = .
 *(vtable)
 *(.data*)
 .data.impure_data
                0x0000000020008000      0x428 /usr/share/gcc-arm-none-eabi-10-2020-q4-major/bin/../lib/gcc/arm-none-eabi/10.2.1/../../../../arm-none-eabi/lib/thumb/v7e-m+fp/hard/libc.a(lib_a-impure.o)
 .data.__atexit_recursive_mutex
                0x0000000020008428        0x4 /usr/share/gcc-arm-none-eabi-10-2020-q4-major/bin/../lib/gcc/arm-none-eabi/10.2.1/../../../../arm-none-eabi/lib/thumb/v7e-m+fp/hard/libc.a(lib_a-__call_atexit.o)
                0x0000000020008428                __atexit_recursive_mutex
 .data._fl_addr
                0x000000002000842c        0x4 _build/build-bm68rgb_custom_rev1_THusb/flash_nrf5x.o
 .data.dbl_reset_mem
                0x0000000020008430        0x4 _build/build-bm68rgb_custom_rev1_THusb/main.o
                0x0000000020008430                dbl_reset_mem
 .data.SystemCoreClock
                0x0000000020008434        0x4 _build/build-bm68rgb_custom_rev1_THusb/system_nrf52840.o
                0x0000000020008434                SystemCoreClock
 .data._adv_handle
                0x0000000020008438        0x1 _build/build-bm68rgb_custom_rev1_THusb/dfu_transport_ble.o
 *fill*         0x0000000020008439        0x1 
 .data.m_conn_handle
                0x000000002000843a        0x2 _build/build-bm68rgb_custom_rev1_THusb/dfu_transport_ble.o
 .data.m_direct_adv_cnt
                0x000000002000843c        0x4 _build/build-bm68rgb_custom_rev1_THusb/dfu_transport_ble.o
 .data.handle_rx_byte
                0x0000000020008440        0x4 _build/build-bm68rgb_custom_rev1_THusb/hci_slip.o
 .data.send_tx_byte
                0x0000000020008444        0x4 _build/build-bm68rgb_custom_rev1_THusb/hci_slip.o
                0x0000000020008444                send_tx_byte
 .data.first_write.0
                0x0000000020008448        0x1 _build/build-bm68rgb_custom_rev1_THusb/msc_uf2.o
 .data.desc_configuration_cdc_msc
                0x0000000020008449       0x62 _build/build-bm68rgb_custom_rev1_THusb/usb_desc.o
                0x0000000020008449                desc_configuration_cdc_msc
 .data.desc_configuration_cdc_only
                0x00000000200084ab       0x4b _build/build-bm68rgb_custom_rev1_THusb/usb_desc.o
                0x00000000200084ab                desc_configuration_cdc_only
 .data.desc_device
                0x00000000200084f6       0x12 _build/build-bm68rgb_custom_rev1_THusb/usb_desc.o
                0x00000000200084f6                desc_device
 .data.string_desc_arr
                0x0000000020008508       0x18 _build/build-bm68rgb_custom_rev1_THusb/usb_desc.o
                0x0000000020008508                string_desc_arr
 .data.infoUf2File
                0x0000000020008520      0x180 _build/build-bm68rgb_custom_rev1_THusb/ghostfat.o
                0x0000000020008520                infoUf2File
 .data._usbd_qdef
                0x00000000200086a0       0x18 _build/build-bm68rgb_custom_rev1_THusb/usbd.o
                0x00000000200086a0                _usbd_qdef
                0x00000000200086b8                . = ALIGN (0x4)
                0x00000000200086b8                PROVIDE (__preinit_array_start = .)
 *(.preinit_array)
                0x00000000200086b8                PROVIDE (__preinit_array_end = .)
                0x00000000200086b8                . = ALIGN (0x4)
                0x00000000200086b8                PROVIDE (__init_array_start = .)
 *(SORT_BY_NAME(.init_array.*))
 .init_array.00000
                0x00000000200086b8        0x4 /usr/share/gcc-arm-none-eabi-10-2020-q4-major/bin/../lib/gcc/arm-none-eabi/10.2.1/../../../../arm-none-eabi/lib/thumb/v7e-m+fp/hard/libc.a(lib_a-__call_atexit.o)
 *(.init_array)
 .init_array    0x00000000200086bc        0x4 /usr/share/gcc-arm-none-eabi-10-2020-q4-major/bin/../lib/gcc/arm-none-eabi/10.2.1/thumb/v7e-m+fp/hard/crtbegin.o
                0x00000000200086c0                PROVIDE (__init_array_end = .)
                0x00000000200086c0                . = ALIGN (0x4)
                0x00000000200086c0                PROVIDE (__fini_array_start = .)
 *(SORT_BY_NAME(.fini_array.*))
 *(.fini_array)
 .fini_array    0x00000000200086c0        0x4 /usr/share/gcc-arm-none-eabi-10-2020-q4-major/bin/../lib/gcc/arm-none-eabi/10.2.1/thumb/v7e-m+fp/hard/crtbegin.o
                0x00000000200086c4                PROVIDE (__fini_array_end = .)
 *(.jcr*)
                0x00000000200086c4                . = ALIGN (0x4)
                0x00000000200086c4                __data_end__ = .

.igot.plt       0x00000000200086c4        0x0 load address 0x00000000000fc140
 .igot.plt      0x00000000200086c4        0x0 /usr/share/gcc-arm-none-eabi-10-2020-q4-major/bin/../lib/gcc/arm-none-eabi/10.2.1/thumb/v7e-m+fp/hard/crtbegin.o

.bss            0x00000000200086c4     0x47e0 load address 0x00000000000fc140
                0x00000000200086c4                . = ALIGN (0x4)
                0x00000000200086c4                __bss_start__ = .
 *(.bss*)
 .bss           0x00000000200086c4       0x1c /usr/share/gcc-arm-none-eabi-10-2020-q4-major/bin/../lib/gcc/arm-none-eabi/10.2.1/thumb/v7e-m+fp/hard/crtbegin.o
 .bss.__lock___atexit_recursive_mutex
                0x00000000200086e0        0x1 /usr/share/gcc-arm-none-eabi-10-2020-q4-major/bin/../lib/gcc/arm-none-eabi/10.2.1/../../../../arm-none-eabi/lib/thumb/v7e-m+fp/hard/libc.a(lib_a-lock.o)
                0x00000000200086e0                __lock___atexit_recursive_mutex
 .bss.m_extended_packet
                0x00000000200086e1        0xa _build/build-bm68rgb_custom_rev1_THusb/dfu_init.o
 *fill*         0x00000000200086eb        0x1 
 .bss._fl_buf   0x00000000200086ec     0x1000 _build/build-bm68rgb_custom_rev1_THusb/flash_nrf5x.o
 .bss._ota_connected
                0x00000000200096ec        0x1 _build/build-bm68rgb_custom_rev1_THusb/main.o
                0x00000000200096ec                _ota_connected
 .bss._ota_dfu  0x00000000200096ed        0x1 _build/build-bm68rgb_custom_rev1_THusb/main.o
                0x00000000200096ed                _ota_dfu
 .bss._sd_inited
                0x00000000200096ee        0x1 _build/build-bm68rgb_custom_rev1_THusb/main.o
                0x00000000200096ee                _sd_inited
 *fill*         0x00000000200096ef        0x1 
 .bss.APP_SCHED_BUF.1
                0x00000000200096f0      0x1f0 _build/build-bm68rgb_custom_rev1_THusb/boards.o
 .bss._systick_count
                0x00000000200098e0        0x4 _build/build-bm68rgb_custom_rev1_THusb/boards.o
 .bss.led_duty_cycles
                0x00000000200098e4        0x8 _build/build-bm68rgb_custom_rev1_THusb/boards.o
 .bss.primary_cycle_length
                0x00000000200098ec        0x4 _build/build-bm68rgb_custom_rev1_THusb/boards.o
 .bss.rgb_color
                0x00000000200098f0        0x4 _build/build-bm68rgb_custom_rev1_THusb/boards.o
 .bss.secondary_cycle_length
                0x00000000200098f4        0x4 _build/build-bm68rgb_custom_rev1_THusb/boards.o
 .bss.m_pofwarn_handler
                0x00000000200098f8        0x4 _build/build-bm68rgb_custom_rev1_THusb/nrfx_power.o
 .bss.m_sleepevt_handler
                0x00000000200098fc        0x4 _build/build-bm68rgb_custom_rev1_THusb/nrfx_power.o
 .bss.m_usbevt_handler
                0x0000000020009900        0x4 _build/build-bm68rgb_custom_rev1_THusb/nrfx_power.o
 .bss.nrfx_power_irq_enabled
                0x0000000020009904        0x1 _build/build-bm68rgb_custom_rev1_THusb/nrfx_power.o
                0x0000000020009904                nrfx_power_irq_enabled
 *fill*         0x0000000020009905        0x3 
 .bss._dfu_startup_timer_data
                0x0000000020009908       0x20 _build/build-bm68rgb_custom_rev1_THusb/bootloader.o
 .bss.dfu_startup_packet_received
                0x0000000020009928        0x1 _build/build-bm68rgb_custom_rev1_THusb/bootloader.o
                0x0000000020009928                dfu_startup_packet_received
 *fill*         0x0000000020009929        0x3 
 .bss.m_bootsettings_handle
                0x000000002000992c        0x8 _build/build-bm68rgb_custom_rev1_THusb/bootloader.o
 .bss.m_cancel_timeout_on_usb
                0x0000000020009934        0x1 _build/build-bm68rgb_custom_rev1_THusb/bootloader.o
 .bss.m_update_status
                0x0000000020009935        0x1 _build/build-bm68rgb_custom_rev1_THusb/bootloader.o
 *fill*         0x0000000020009936        0x2 
 .bss.settings.1
                0x0000000020009938       0x1c _build/build-bm68rgb_custom_rev1_THusb/bootloader.o
 .bss.m_data_queue
                0x0000000020009954       0x34 _build/build-bm68rgb_custom_rev1_THusb/dfu_transport_serial.o
 .bss.adv_buf.0
                0x0000000020009988       0x1f _build/build-bm68rgb_custom_rev1_THusb/dfu_transport_ble.o
 *fill*         0x00000000200099a7        0x1 
 .bss.gap_adv.1
                0x00000000200099a8       0x10 _build/build-bm68rgb_custom_rev1_THusb/dfu_transport_ble.o
 .bss.m_ble_peer_data
                0x00000000200099b8       0x3c _build/build-bm68rgb_custom_rev1_THusb/dfu_transport_ble.o
 .bss.m_ble_peer_data_valid
                0x00000000200099f4        0x1 _build/build-bm68rgb_custom_rev1_THusb/dfu_transport_ble.o
 *fill*         0x00000000200099f5        0x3 
 .bss.m_dfu     0x00000000200099f8       0x30 _build/build-bm68rgb_custom_rev1_THusb/dfu_transport_ble.o
 .bss.m_gap_ids
                0x0000000020009a28        0x4 _build/build-bm68rgb_custom_rev1_THusb/dfu_transport_ble.o
 .bss.m_is_advertising
                0x0000000020009a2c        0x1 _build/build-bm68rgb_custom_rev1_THusb/dfu_transport_ble.o
 *fill*         0x0000000020009a2d        0x3 
 .bss.m_num_of_firmware_bytes_rcvd
                0x0000000020009a30        0x4 _build/build-bm68rgb_custom_rev1_THusb/dfu_transport_ble.o
 .bss.m_pkt_notif_target
                0x0000000020009a34        0x2 _build/build-bm68rgb_custom_rev1_THusb/dfu_transport_ble.o
 .bss.m_pkt_notif_target_cnt
                0x0000000020009a36        0x2 _build/build-bm68rgb_custom_rev1_THusb/dfu_transport_ble.o
 .bss.m_pkt_rcpt_notif_enabled
                0x0000000020009a38        0x1 _build/build-bm68rgb_custom_rev1_THusb/dfu_transport_ble.o
 .bss.m_pkt_type
                0x0000000020009a39        0x1 _build/build-bm68rgb_custom_rev1_THusb/dfu_transport_ble.o
 .bss.m_sec_params
                0x0000000020009a3a        0x5 _build/build-bm68rgb_custom_rev1_THusb/dfu_transport_ble.o
 .bss.m_tear_down_in_progress
                0x0000000020009a3f        0x1 _build/build-bm68rgb_custom_rev1_THusb/dfu_transport_ble.o
 .bss.m_update_mode
                0x0000000020009a40        0x1 _build/build-bm68rgb_custom_rev1_THusb/dfu_transport_ble.o
 *fill*         0x0000000020009a41        0x3 
 .bss.m_whitelist
                0x0000000020009a44        0x4 _build/build-bm68rgb_custom_rev1_THusb/dfu_transport_ble.o
 .bss.mp_final_packet
                0x0000000020009a48        0x4 _build/build-bm68rgb_custom_rev1_THusb/dfu_transport_ble.o
 .bss.mp_rx_buffer
                0x0000000020009a4c        0x4 _build/build-bm68rgb_custom_rev1_THusb/dfu_transport_ble.o
 .bss.m_data_pkt_cb
                0x0000000020009a50        0x4 _build/build-bm68rgb_custom_rev1_THusb/dfu_single_bank.o
 .bss.m_data_received
                0x0000000020009a54        0x4 _build/build-bm68rgb_custom_rev1_THusb/dfu_single_bank.o
 .bss.m_dfu_state
                0x0000000020009a58        0x1 _build/build-bm68rgb_custom_rev1_THusb/dfu_single_bank.o
 *fill*         0x0000000020009a59        0x3 
 .bss.m_functions
                0x0000000020009a5c        0xc _build/build-bm68rgb_custom_rev1_THusb/dfu_single_bank.o
 .bss.m_image_crc
                0x0000000020009a68        0x2 _build/build-bm68rgb_custom_rev1_THusb/dfu_single_bank.o
 *fill*         0x0000000020009a6a        0x2 
 .bss.m_image_size
                0x0000000020009a6c        0x4 _build/build-bm68rgb_custom_rev1_THusb/dfu_single_bank.o
 .bss.m_init_packet
                0x0000000020009a70       0x40 _build/build-bm68rgb_custom_rev1_THusb/dfu_single_bank.o
 .bss.m_init_packet_length
                0x0000000020009ab0        0x1 _build/build-bm68rgb_custom_rev1_THusb/dfu_single_bank.o
 *fill*         0x0000000020009ab1        0x3 
 .bss.m_start_packet
                0x0000000020009ab4       0x10 _build/build-bm68rgb_custom_rev1_THusb/dfu_single_bank.o
 .bss.m_storage_handle_app
                0x0000000020009ac4        0x8 _build/build-bm68rgb_custom_rev1_THusb/dfu_single_bank.o
 .bss.mp_storage_handle_active
                0x0000000020009acc        0x4 _build/build-bm68rgb_custom_rev1_THusb/dfu_single_bank.o
 .bss.m_is_dfu_service_initialized
                0x0000000020009ad0        0x1 _build/build-bm68rgb_custom_rev1_THusb/ble_dfu.o
 .bss.m_notif_buffer
                0x0000000020009ad1        0x7 _build/build-bm68rgb_custom_rev1_THusb/ble_dfu.o
 .bss.fw_rev_handles
                0x0000000020009ad8        0x8 _build/build-bm68rgb_custom_rev1_THusb/ble_dis.o
 .bss.manufact_name_handles
                0x0000000020009ae0        0x8 _build/build-bm68rgb_custom_rev1_THusb/ble_dis.o
 .bss.model_num_handles
                0x0000000020009ae8        0x8 _build/build-bm68rgb_custom_rev1_THusb/ble_dis.o
 .bss.pnp_id_handles
                0x0000000020009af0        0x8 _build/build-bm68rgb_custom_rev1_THusb/ble_dis.o
 .bss.service_handle
                0x0000000020009af8        0x2 _build/build-bm68rgb_custom_rev1_THusb/ble_dis.o
 *fill*         0x0000000020009afa        0x2 
 .bss.m_app_table
                0x0000000020009afc       0x10 _build/build-bm68rgb_custom_rev1_THusb/pstorage_raw.o
 .bss.m_cmd_queue
                0x0000000020009b0c       0xf4 _build/build-bm68rgb_custom_rev1_THusb/pstorage_raw.o
 .bss.m_next_app_instance
                0x0000000020009c00        0x4 _build/build-bm68rgb_custom_rev1_THusb/pstorage_raw.o
 .bss.m_round_val
                0x0000000020009c04        0x4 _build/build-bm68rgb_custom_rev1_THusb/pstorage_raw.o
 .bss.m_op_queue
                0x0000000020009c08      0x10c _build/build-bm68rgb_custom_rev1_THusb/app_timer.o
 .bss.m_rtc1_reset
                0x0000000020009d14        0x1 _build/build-bm68rgb_custom_rev1_THusb/app_timer.o
 .bss.m_rtc1_running
                0x0000000020009d15        0x1 _build/build-bm68rgb_custom_rev1_THusb/app_timer.o
 *fill*         0x0000000020009d16        0x2 
 .bss.m_ticks_elapsed
                0x0000000020009d18        0x8 _build/build-bm68rgb_custom_rev1_THusb/app_timer.o
 .bss.m_ticks_elapsed_q_read_ind
                0x0000000020009d20        0x1 _build/build-bm68rgb_custom_rev1_THusb/app_timer.o
 .bss.m_ticks_elapsed_q_write_ind
                0x0000000020009d21        0x1 _build/build-bm68rgb_custom_rev1_THusb/app_timer.o
 *fill*         0x0000000020009d22        0x2 
 .bss.m_ticks_latest
                0x0000000020009d24        0x4 _build/build-bm68rgb_custom_rev1_THusb/app_timer.o
 .bss.mp_timer_id_head
                0x0000000020009d28        0x4 _build/build-bm68rgb_custom_rev1_THusb/app_timer.o
 .bss.m_queue_end_index
                0x0000000020009d2c        0x1 _build/build-bm68rgb_custom_rev1_THusb/app_scheduler.o
 *fill*         0x0000000020009d2d        0x3 
 .bss.m_queue_event_data
                0x0000000020009d30        0x4 _build/build-bm68rgb_custom_rev1_THusb/app_scheduler.o
 .bss.m_queue_event_headers
                0x0000000020009d34        0x4 _build/build-bm68rgb_custom_rev1_THusb/app_scheduler.o
 .bss.m_queue_event_size
                0x0000000020009d38        0x2 _build/build-bm68rgb_custom_rev1_THusb/app_scheduler.o
 .bss.m_queue_size
                0x0000000020009d3a        0x2 _build/build-bm68rgb_custom_rev1_THusb/app_scheduler.o
 .bss.m_queue_start_index
                0x0000000020009d3c        0x1 _build/build-bm68rgb_custom_rev1_THusb/app_scheduler.o
 *fill*         0x0000000020009d3d        0x3 
 .bss.nrf_nvic_state
                0x0000000020009d40        0xc _build/build-bm68rgb_custom_rev1_THusb/app_util_platform.o
                0x0000000020009d40                nrf_nvic_state
 .bss.m_is_tx_allocated
                0x0000000020009d4c        0x1 _build/build-bm68rgb_custom_rev1_THusb/hci_mem_pool.o
 *fill*         0x0000000020009d4d        0x3 
 .bss.m_rx_buffer_elem_queue
                0x0000000020009d50     0x12e0 _build/build-bm68rgb_custom_rev1_THusb/hci_mem_pool.o
 .bss.m_rx_buffer_queue
                0x000000002000b030       0x1c _build/build-bm68rgb_custom_rev1_THusb/hci_mem_pool.o
 .bss.m_current_state
                0x000000002000b04c        0x1 _build/build-bm68rgb_custom_rev1_THusb/hci_slip.o
 *fill*         0x000000002000b04d        0x3 
 .bss.m_rx_buffer_length
                0x000000002000b050        0x4 _build/build-bm68rgb_custom_rev1_THusb/hci_slip.o
 .bss.m_rx_received_count
                0x000000002000b054        0x4 _build/build-bm68rgb_custom_rev1_THusb/hci_slip.o
 .bss.m_slip_event_handler
                0x000000002000b058        0x4 _build/build-bm68rgb_custom_rev1_THusb/hci_slip.o
 .bss.m_tx_buffer_index
                0x000000002000b05c        0x4 _build/build-bm68rgb_custom_rev1_THusb/hci_slip.o
 .bss.m_tx_buffer_length
                0x000000002000b060        0x4 _build/build-bm68rgb_custom_rev1_THusb/hci_slip.o
 .bss.mp_rx_buffer
                0x000000002000b064        0x4 _build/build-bm68rgb_custom_rev1_THusb/hci_slip.o
 .bss.mp_tx_buffer
                0x000000002000b068        0x4 _build/build-bm68rgb_custom_rev1_THusb/hci_slip.o
 .bss.ack_packet.0
                0x000000002000b06c        0x4 _build/build-bm68rgb_custom_rev1_THusb/hci_transport.o
 .bss.m_app_timer_id_data
                0x000000002000b070       0x20 _build/build-bm68rgb_custom_rev1_THusb/hci_transport.o
 .bss.m_is_slip_decode_ready
                0x000000002000b090        0x1 _build/build-bm68rgb_custom_rev1_THusb/hci_transport.o
 *fill*         0x000000002000b091        0x3 
 .bss.m_packet_expected_seq_number
                0x000000002000b094        0x4 _build/build-bm68rgb_custom_rev1_THusb/hci_transport.o
 .bss.m_packet_transmit_seq_number
                0x000000002000b098        0x4 _build/build-bm68rgb_custom_rev1_THusb/hci_transport.o
 .bss.m_rx_ack_buffer
                0x000000002000b09c        0x5 _build/build-bm68rgb_custom_rev1_THusb/hci_transport.o
 *fill*         0x000000002000b0a1        0x3 
 .bss.m_transport_event_handle
                0x000000002000b0a4        0x4 _build/build-bm68rgb_custom_rev1_THusb/hci_transport.o
 .bss.m_transport_tx_done_handle
                0x000000002000b0a8        0x4 _build/build-bm68rgb_custom_rev1_THusb/hci_transport.o
 .bss.m_tx_buffer_length
                0x000000002000b0ac        0x4 _build/build-bm68rgb_custom_rev1_THusb/hci_transport.o
 .bss.m_tx_done_result_code
                0x000000002000b0b0        0x1 _build/build-bm68rgb_custom_rev1_THusb/hci_transport.o
 *fill*         0x000000002000b0b1        0x3 
 .bss.m_tx_retry_counter
                0x000000002000b0b4        0x4 _build/build-bm68rgb_custom_rev1_THusb/hci_transport.o
 .bss.m_tx_state
                0x000000002000b0b8        0x1 _build/build-bm68rgb_custom_rev1_THusb/hci_transport.o
 *fill*         0x000000002000b0b9        0x3 
 .bss.mp_slip_used_rx_buffer
                0x000000002000b0bc        0x4 _build/build-bm68rgb_custom_rev1_THusb/hci_transport.o
 .bss.mp_tx_buffer
                0x000000002000b0c0        0x4 _build/build-bm68rgb_custom_rev1_THusb/hci_transport.o
 .bss._wr_state
                0x000000002000b0c4      0x21c _build/build-bm68rgb_custom_rev1_THusb/msc_uf2.o
 .bss._cdc_only
                0x000000002000b2e0        0x1 _build/build-bm68rgb_custom_rev1_THusb/usb_desc.o
 *fill*         0x000000002000b2e1        0x1 
 .bss._desc_str
                0x000000002000b2e2       0x82 _build/build-bm68rgb_custom_rev1_THusb/usb_desc.o
 .bss.desc_str_serial
                0x000000002000b364       0x11 _build/build-bm68rgb_custom_rev1_THusb/usb_desc.o
 *fill*         0x000000002000b375        0x3 
 .bss._dcd      0x000000002000b378       0xdc _build/build-bm68rgb_custom_rev1_THusb/dcd_nrf5x.o
 .bss._app_driver
                0x000000002000b454        0x4 _build/build-bm68rgb_custom_rev1_THusb/usbd.o
 .bss._app_driver_count
                0x000000002000b458        0x1 _build/build-bm68rgb_custom_rev1_THusb/usbd.o
 .bss._usbd_dev
                0x000000002000b459       0x37 _build/build-bm68rgb_custom_rev1_THusb/usbd.o
 .bss._usbd_initialized
                0x000000002000b490        0x1 _build/build-bm68rgb_custom_rev1_THusb/usbd.o
 *fill*         0x000000002000b491        0x3 
 .bss._usbd_q   0x000000002000b494        0x4 _build/build-bm68rgb_custom_rev1_THusb/usbd.o
 .bss._usbd_qdef_buf
                0x000000002000b498       0xc0 _build/build-bm68rgb_custom_rev1_THusb/usbd.o
                0x000000002000b498                _usbd_qdef_buf
 .bss._ctrl_xfer
                0x000000002000b558       0x14 _build/build-bm68rgb_custom_rev1_THusb/usbd_control.o
 .bss._usbd_ctrl_buf
                0x000000002000b56c       0x40 _build/build-bm68rgb_custom_rev1_THusb/usbd_control.o
 .bss._cdcd_itf
                0x000000002000b5ac      0x8b8 _build/build-bm68rgb_custom_rev1_THusb/cdc_device.o
 .bss._mscd_buf
                0x000000002000be64     0x1000 _build/build-bm68rgb_custom_rev1_THusb/msc_device.o
 .bss._mscd_itf
                0x000000002000ce64       0x40 _build/build-bm68rgb_custom_rev1_THusb/msc_device.o
 *(COMMON)
                0x000000002000cea4                . = ALIGN (0x4)
                0x000000002000cea4                __bss_end__ = .

.heap           0x000000002000cea8        0x0
                0x000000002000cea8                __HeapBase = .
                0x000000002000cea8                __end__ = .
                [!provide]                        PROVIDE (end = .)
 *(.heap*)
 .heap          0x000000002000cea8        0x0 _build/build-bm68rgb_custom_rev1_THusb/gcc_startup_nrf52840.o
                0x000000002000cea8                __HeapLimit = .

.stack_dummy    0x000000002000cea8     0x2000
 *(.stack*)
 .stack         0x000000002000cea8     0x2000 _build/build-bm68rgb_custom_rev1_THusb/gcc_startup_nrf52840.o
                0x0000000020040000                __StackTop = (ORIGIN (RAM) + LENGTH (RAM))
                0x000000002003e000                __StackLimit = (__StackTop - SIZEOF (.stack_dummy))
                0x0000000020040000                PROVIDE (__stack = __StackTop)
                0x0000000000000001                ASSERT ((__StackLimit >= __HeapLimit), region RAM overflowed with stack)
                0x00000000000006c4                DataInitFlashUsed = (__bss_start__ - __data_start__)
                0x0000000000007a7c                CodeFlashUsed = (__etext - ORIGIN (FLASH))
                0x0000000000008140                TotalFlashUsed = (CodeFlashUsed + DataInitFlashUsed)
                0x0000000000000001                ASSERT ((TotalFlashUsed <= LENGTH (FLASH)), region FLASH overflowed with .data and user data)
LOAD _build/build-bm68rgb_custom_rev1_THusb/dfu_ble_svc.o
LOAD _build/build-bm68rgb_custom_rev1_THusb/dfu_init.o
LOAD _build/build-bm68rgb_custom_rev1_THusb/flash_nrf5x.o
LOAD _build/build-bm68rgb_custom_rev1_THusb/main.o
LOAD _build/build-bm68rgb_custom_rev1_THusb/boards.o
LOAD _build/build-bm68rgb_custom_rev1_THusb/nrfx_power.o
LOAD _build/build-bm68rgb_custom_rev1_THusb/nrfx_nvmc.o
LOAD _build/build-bm68rgb_custom_rev1_THusb/system_nrf52840.o
LOAD _build/build-bm68rgb_custom_rev1_THusb/bootloader.o
LOAD _build/build-bm68rgb_custom_rev1_THusb/bootloader_settings.o
LOAD _build/build-bm68rgb_custom_rev1_THusb/bootloader_util.o
LOAD _build/build-bm68rgb_custom_rev1_THusb/dfu_transport_serial.o
LOAD _build/build-bm68rgb_custom_rev1_THusb/dfu_transport_ble.o
LOAD _build/build-bm68rgb_custom_rev1_THusb/dfu_single_bank.o
LOAD _build/build-bm68rgb_custom_rev1_THusb/ble_dfu.o
LOAD _build/build-bm68rgb_custom_rev1_THusb/ble_dis.o
LOAD _build/build-bm68rgb_custom_rev1_THusb/pstorage_raw.o
LOAD _build/build-bm68rgb_custom_rev1_THusb/app_timer.o
LOAD _build/build-bm68rgb_custom_rev1_THusb/app_scheduler.o
LOAD _build/build-bm68rgb_custom_rev1_THusb/app_error.o
LOAD _build/build-bm68rgb_custom_rev1_THusb/app_util_platform.o
LOAD _build/build-bm68rgb_custom_rev1_THusb/crc16.o
LOAD _build/build-bm68rgb_custom_rev1_THusb/hci_mem_pool.o
LOAD _build/build-bm68rgb_custom_rev1_THusb/hci_slip.o
LOAD _build/build-bm68rgb_custom_rev1_THusb/hci_transport.o
LOAD _build/build-bm68rgb_custom_rev1_THusb/nrf_assert.o
LOAD _build/build-bm68rgb_custom_rev1_THusb/pinconfig.o
LOAD _build/build-bm68rgb_custom_rev1_THusb/msc_uf2.o
LOAD _build/build-bm68rgb_custom_rev1_THusb/usb_desc.o
LOAD _build/build-bm68rgb_custom_rev1_THusb/usb.o
LOAD _build/build-bm68rgb_custom_rev1_THusb/ghostfat.o
LOAD _build/build-bm68rgb_custom_rev1_THusb/dcd_nrf5x.o
LOAD _build/build-bm68rgb_custom_rev1_THusb/tusb_fifo.o
LOAD _build/build-bm68rgb_custom_rev1_THusb/usbd.o
LOAD _build/build-bm68rgb_custom_rev1_THusb/usbd_control.o
LOAD _build/build-bm68rgb_custom_rev1_THusb/cdc_device.o
LOAD _build/build-bm68rgb_custom_rev1_THusb/msc_device.o
LOAD _build/build-bm68rgb_custom_rev1_THusb/tusb.o
LOAD _build/build-bm68rgb_custom_rev1_THusb/gcc_startup_nrf52840.o
START GROUP
LOAD /usr/share/gcc-arm-none-eabi-10-2020-q4-major/bin/../lib/gcc/arm-none-eabi/10.2.1/../../../../arm-none-eabi/lib/thumb/v7e-m+fp/hard/libm.a
LOAD /usr/share/gcc-arm-none-eabi-10-2020-q4-major/bin/../lib/gcc/arm-none-eabi/10.2.1/../../../../arm-none-eabi/lib/thumb/v7e-m+fp/hard/libc_nano.a
END GROUP
START GROUP
LOAD /usr/share/gcc-arm-none-eabi-10-2020-q4-major/bin/../lib/gcc/arm-none-eabi/10.2.1/thumb/v7e-m+fp/hard/libgcc.a
LOAD /usr/share/gcc-arm-none-eabi-10-2020-q4-major/bin/../lib/gcc/arm-none-eabi/10.2.1/../../../../arm-none-eabi/lib/thumb/v7e-m+fp/hard/libg_nano.a
LOAD /usr/share/gcc-arm-none-eabi-10-2020-q4-major/bin/../lib/gcc/arm-none-eabi/10.2.1/../../../../arm-none-eabi/lib/thumb/v7e-m+fp/hard/libc_nano.a
END GROUP
START GROUP
LOAD /usr/share/gcc-arm-none-eabi-10-2020-q4-major/bin/../lib/gcc/arm-none-eabi/10.2.1/thumb/v7e-m+fp/hard/libgcc.a
LOAD /usr/share/gcc-arm-none-eabi-10-2020-q4-major/bin/../lib/gcc/arm-none-eabi/10.2.1/../../../../arm-none-eabi/lib/thumb/v7e-m+fp/hard/libc_nano.a
LOAD /usr/share/gcc-arm-none-eabi-10-2020-q4-major/bin/../lib/gcc/arm-none-eabi/10.2.1/../../../../arm-none-eabi/lib/thumb/v7e-m+fp/hard/libnosys.a
END GROUP
START GROUP
LOAD /usr/share/gcc-arm-none-eabi-10-2020-q4-major/bin/../lib/gcc/arm-none-eabi/10.2.1/thumb/v7e-m+fp/hard/libgcc.a
LOAD /usr/share/gcc-arm-none-eabi-10-2020-q4-major/bin/../lib/gcc/arm-none-eabi/10.2.1/../../../../arm-none-eabi/lib/thumb/v7e-m+fp/hard/libc_nano.a
LOAD /usr/share/gcc-arm-none-eabi-10-2020-q4-major/bin/../lib/gcc/arm-none-eabi/10.2.1/../../../../arm-none-eabi/lib/thumb/v7e-m+fp/hard/libnosys.a
END GROUP
LOAD /usr/share/gcc-arm-none-eabi-10-2020-q4-major/bin/../lib/gcc/arm-none-eabi/10.2.1/thumb/v7e-m+fp/hard/crtend.o
LOAD /usr/share/gcc-arm-none-eabi-10-2020-q4-major/bin/../lib/gcc/arm-none-eabi/10.2.1/thumb/v7e-m+fp/hard/crtn.o
OUTPUT(_build/build-bm68rgb_custom_rev1_THusb/bm68rgb_custom_rev1_THusb_bootloader-0.6.3-52-g0216684-dirty.out elf32-littlearm)
LOAD linker stubs

.ARM.attributes
                0x0000000000000000       0x30
 .ARM.attributes
                0x0000000000000000       0x1e /usr/share/gcc-arm-none-eabi-10-2020-q4-major/bin/../lib/gcc/arm-none-eabi/10.2.1/thumb/v7e-m+fp/hard/crti.o
 .ARM.attributes
                0x000000000000001e       0x34 /usr/share/gcc-arm-none-eabi-10-2020-q4-major/bin/../lib/gcc/arm-none-eabi/10.2.1/thumb/v7e-m+fp/hard/crtbegin.o
 .ARM.attributes
                0x0000000000000052       0x1c /usr/share/gcc-arm-none-eabi-10-2020-q4-major/bin/../lib/gcc/arm-none-eabi/10.2.1/../../../../arm-none-eabi/lib/thumb/v7e-m+fp/hard/crt0.o
 .ARM.attributes
                0x000000000000006e       0x34 /usr/share/gcc-arm-none-eabi-10-2020-q4-major/bin/../lib/gcc/arm-none-eabi/10.2.1/../../../../arm-none-eabi/lib/thumb/v7e-m+fp/hard/libc.a(lib_a-exit.o)
 .ARM.attributes
                0x00000000000000a2       0x32 /usr/share/gcc-arm-none-eabi-10-2020-q4-major/bin/../lib/gcc/arm-none-eabi/10.2.1/../../../../arm-none-eabi/lib/thumb/v7e-m+fp/hard/libc.a(lib_a-impure.o)
 .ARM.attributes
                0x00000000000000d4       0x34 /usr/share/gcc-arm-none-eabi-10-2020-q4-major/bin/../lib/gcc/arm-none-eabi/10.2.1/../../../../arm-none-eabi/lib/thumb/v7e-m+fp/hard/libc.a(lib_a-init.o)
 .ARM.attributes
                0x0000000000000108       0x34 /usr/share/gcc-arm-none-eabi-10-2020-q4-major/bin/../lib/gcc/arm-none-eabi/10.2.1/../../../../arm-none-eabi/lib/thumb/v7e-m+fp/hard/libc.a(lib_a-memset.o)
 .ARM.attributes
                0x000000000000013c       0x34 /usr/share/gcc-arm-none-eabi-10-2020-q4-major/bin/../lib/gcc/arm-none-eabi/10.2.1/../../../../arm-none-eabi/lib/thumb/v7e-m+fp/hard/libc.a(lib_a-__call_atexit.o)
 .ARM.attributes
                0x0000000000000170       0x34 /usr/share/gcc-arm-none-eabi-10-2020-q4-major/bin/../lib/gcc/arm-none-eabi/10.2.1/../../../../arm-none-eabi/lib/thumb/v7e-m+fp/hard/libc.a(lib_a-atexit.o)
 .ARM.attributes
                0x00000000000001a4       0x34 /usr/share/gcc-arm-none-eabi-10-2020-q4-major/bin/../lib/gcc/arm-none-eabi/10.2.1/../../../../arm-none-eabi/lib/thumb/v7e-m+fp/hard/libc.a(lib_a-fini.o)
 .ARM.attributes
                0x00000000000001d8       0x34 /usr/share/gcc-arm-none-eabi-10-2020-q4-major/bin/../lib/gcc/arm-none-eabi/10.2.1/../../../../arm-none-eabi/lib/thumb/v7e-m+fp/hard/libc.a(lib_a-lock.o)
 .ARM.attributes
                0x000000000000020c       0x34 /usr/share/gcc-arm-none-eabi-10-2020-q4-major/bin/../lib/gcc/arm-none-eabi/10.2.1/../../../../arm-none-eabi/lib/thumb/v7e-m+fp/hard/libc.a(lib_a-__atexit.o)
 .ARM.attributes
                0x0000000000000240       0x34 /usr/share/gcc-arm-none-eabi-10-2020-q4-major/bin/../lib/gcc/arm-none-eabi/10.2.1/../../../../arm-none-eabi/lib/thumb/v7e-m+fp/hard/libnosys.a(_exit.o)
 .ARM.attributes
                0x0000000000000274       0x34 _build/build-bm68rgb_custom_rev1_THusb/dfu_ble_svc.o
 .ARM.attributes
                0x00000000000002a8       0x34 _build/build-bm68rgb_custom_rev1_THusb/dfu_init.o
 .ARM.attributes
                0x00000000000002dc       0x34 _build/build-bm68rgb_custom_rev1_THusb/flash_nrf5x.o
 .ARM.attributes
                0x0000000000000310       0x34 _build/build-bm68rgb_custom_rev1_THusb/main.o
 .ARM.attributes
                0x0000000000000344       0x34 _build/build-bm68rgb_custom_rev1_THusb/boards.o
 .ARM.attributes
                0x0000000000000378       0x34 _build/build-bm68rgb_custom_rev1_THusb/nrfx_power.o
 .ARM.attributes
                0x00000000000003ac       0x34 _build/build-bm68rgb_custom_rev1_THusb/nrfx_nvmc.o
 .ARM.attributes
                0x00000000000003e0       0x34 _build/build-bm68rgb_custom_rev1_THusb/system_nrf52840.o
 .ARM.attributes
                0x0000000000000414       0x34 _build/build-bm68rgb_custom_rev1_THusb/bootloader.o
 .ARM.attributes
                0x0000000000000448       0x34 _build/build-bm68rgb_custom_rev1_THusb/bootloader_settings.o
 .ARM.attributes
                0x000000000000047c       0x34 _build/build-bm68rgb_custom_rev1_THusb/bootloader_util.o
 .ARM.attributes
                0x00000000000004b0       0x34 _build/build-bm68rgb_custom_rev1_THusb/dfu_transport_serial.o
 .ARM.attributes
                0x00000000000004e4       0x34 _build/build-bm68rgb_custom_rev1_THusb/dfu_transport_ble.o
 .ARM.attributes
                0x0000000000000518       0x34 _build/build-bm68rgb_custom_rev1_THusb/dfu_single_bank.o
 .ARM.attributes
                0x000000000000054c       0x34 _build/build-bm68rgb_custom_rev1_THusb/ble_dfu.o
 .ARM.attributes
                0x0000000000000580       0x34 _build/build-bm68rgb_custom_rev1_THusb/ble_dis.o
 .ARM.attributes
                0x00000000000005b4       0x34 _build/build-bm68rgb_custom_rev1_THusb/pstorage_raw.o
 .ARM.attributes
                0x00000000000005e8       0x34 _build/build-bm68rgb_custom_rev1_THusb/app_timer.o
 .ARM.attributes
                0x000000000000061c       0x34 _build/build-bm68rgb_custom_rev1_THusb/app_scheduler.o
 .ARM.attributes
                0x0000000000000650       0x34 _build/build-bm68rgb_custom_rev1_THusb/app_error.o
 .ARM.attributes
                0x0000000000000684       0x34 _build/build-bm68rgb_custom_rev1_THusb/app_util_platform.o
 .ARM.attributes
                0x00000000000006b8       0x34 _build/build-bm68rgb_custom_rev1_THusb/crc16.o
 .ARM.attributes
                0x00000000000006ec       0x34 _build/build-bm68rgb_custom_rev1_THusb/hci_mem_pool.o
 .ARM.attributes
                0x0000000000000720       0x34 _build/build-bm68rgb_custom_rev1_THusb/hci_slip.o
 .ARM.attributes
                0x0000000000000754       0x34 _build/build-bm68rgb_custom_rev1_THusb/hci_transport.o
 .ARM.attributes
                0x0000000000000788       0x39 _build/build-bm68rgb_custom_rev1_THusb/pinconfig.o
 .ARM.attributes
                0x00000000000007c1       0x34 _build/build-bm68rgb_custom_rev1_THusb/msc_uf2.o
 .ARM.attributes
                0x00000000000007f5       0x34 _build/build-bm68rgb_custom_rev1_THusb/usb_desc.o
 .ARM.attributes
                0x0000000000000829       0x34 _build/build-bm68rgb_custom_rev1_THusb/usb.o
 .ARM.attributes
                0x000000000000085d       0x34 _build/build-bm68rgb_custom_rev1_THusb/ghostfat.o
 .ARM.attributes
                0x0000000000000891       0x34 _build/build-bm68rgb_custom_rev1_THusb/dcd_nrf5x.o
 .ARM.attributes
                0x00000000000008c5       0x34 _build/build-bm68rgb_custom_rev1_THusb/tusb_fifo.o
 .ARM.attributes
                0x00000000000008f9       0x34 _build/build-bm68rgb_custom_rev1_THusb/usbd.o
 .ARM.attributes
                0x000000000000092d       0x34 _build/build-bm68rgb_custom_rev1_THusb/usbd_control.o
 .ARM.attributes
                0x0000000000000961       0x34 _build/build-bm68rgb_custom_rev1_THusb/cdc_device.o
 .ARM.attributes
                0x0000000000000995       0x34 _build/build-bm68rgb_custom_rev1_THusb/msc_device.o
 .ARM.attributes
                0x00000000000009c9       0x34 _build/build-bm68rgb_custom_rev1_THusb/tusb.o
 .ARM.attributes
                0x00000000000009fd       0x20 _build/build-bm68rgb_custom_rev1_THusb/gcc_startup_nrf52840.o
 .ARM.attributes
                0x0000000000000a1d       0x34 /usr/share/gcc-arm-none-eabi-10-2020-q4-major/bin/../lib/gcc/arm-none-eabi/10.2.1/../../../../arm-none-eabi/lib/thumb/v7e-m+fp/hard/libc_nano.a(lib_a-memcmp.o)
 .ARM.attributes
                0x0000000000000a51       0x34 /usr/share/gcc-arm-none-eabi-10-2020-q4-major/bin/../lib/gcc/arm-none-eabi/10.2.1/../../../../arm-none-eabi/lib/thumb/v7e-m+fp/hard/libc_nano.a(lib_a-memcpy-stub.o)
 .ARM.attributes
                0x0000000000000a85       0x34 /usr/share/gcc-arm-none-eabi-10-2020-q4-major/bin/../lib/gcc/arm-none-eabi/10.2.1/../../../../arm-none-eabi/lib/thumb/v7e-m+fp/hard/libc_nano.a(lib_a-memmove.o)
 .ARM.attributes
                0x0000000000000ab9       0x34 /usr/share/gcc-arm-none-eabi-10-2020-q4-major/bin/../lib/gcc/arm-none-eabi/10.2.1/../../../../arm-none-eabi/lib/thumb/v7e-m+fp/hard/libc_nano.a(lib_a-strcat.o)
 .ARM.attributes
                0x0000000000000aed       0x17 /usr/share/gcc-arm-none-eabi-10-2020-q4-major/bin/../lib/gcc/arm-none-eabi/10.2.1/../../../../arm-none-eabi/lib/thumb/v7e-m+fp/hard/libc_nano.a(lib_a-strlen.o)
 .ARM.attributes
                0x0000000000000b04       0x34 /usr/share/gcc-arm-none-eabi-10-2020-q4-major/bin/../lib/gcc/arm-none-eabi/10.2.1/../../../../arm-none-eabi/lib/thumb/v7e-m+fp/hard/libc_nano.a(lib_a-utoa.o)
 .ARM.attributes
                0x0000000000000b38       0x1e /usr/share/gcc-arm-none-eabi-10-2020-q4-major/bin/../lib/gcc/arm-none-eabi/10.2.1/thumb/v7e-m+fp/hard/libgcc.a(_aeabi_uldivmod.o)
 .ARM.attributes
                0x0000000000000b56       0x34 /usr/share/gcc-arm-none-eabi-10-2020-q4-major/bin/../lib/gcc/arm-none-eabi/10.2.1/thumb/v7e-m+fp/hard/libgcc.a(_udivmoddi4.o)
 .ARM.attributes
                0x0000000000000b8a       0x1e /usr/share/gcc-arm-none-eabi-10-2020-q4-major/bin/../lib/gcc/arm-none-eabi/10.2.1/thumb/v7e-m+fp/hard/libgcc.a(_dvmd_tls.o)
 .ARM.attributes
                0x0000000000000ba8       0x32 /usr/share/gcc-arm-none-eabi-10-2020-q4-major/bin/../lib/gcc/arm-none-eabi/10.2.1/thumb/v7e-m+fp/hard/crtend.o
 .ARM.attributes
                0x0000000000000bda       0x1e /usr/share/gcc-arm-none-eabi-10-2020-q4-major/bin/../lib/gcc/arm-none-eabi/10.2.1/thumb/v7e-m+fp/hard/crtn.o

.comment        0x0000000000000000       0x4d
 .comment       0x0000000000000000       0x4d _build/build-bm68rgb_custom_rev1_THusb/dfu_ble_svc.o
                                         0x4e (size before relaxing)
 .comment       0x000000000000004d       0x4e _build/build-bm68rgb_custom_rev1_THusb/dfu_init.o
 .comment       0x000000000000004d       0x4e _build/build-bm68rgb_custom_rev1_THusb/flash_nrf5x.o
 .comment       0x000000000000004d       0x4e _build/build-bm68rgb_custom_rev1_THusb/main.o
 .comment       0x000000000000004d       0x4e _build/build-bm68rgb_custom_rev1_THusb/boards.o
 .comment       0x000000000000004d       0x4e _build/build-bm68rgb_custom_rev1_THusb/nrfx_power.o
 .comment       0x000000000000004d       0x4e _build/build-bm68rgb_custom_rev1_THusb/nrfx_nvmc.o
 .comment       0x000000000000004d       0x4e _build/build-bm68rgb_custom_rev1_THusb/system_nrf52840.o
 .comment       0x000000000000004d       0x4e _build/build-bm68rgb_custom_rev1_THusb/bootloader.o
 .comment       0x000000000000004d       0x4e _build/build-bm68rgb_custom_rev1_THusb/bootloader_settings.o
 .comment       0x000000000000004d       0x4e _build/build-bm68rgb_custom_rev1_THusb/bootloader_util.o
 .comment       0x000000000000004d       0x4e _build/build-bm68rgb_custom_rev1_THusb/dfu_transport_serial.o
 .comment       0x000000000000004d       0x4e _build/build-bm68rgb_custom_rev1_THusb/dfu_transport_ble.o
 .comment       0x000000000000004d       0x4e _build/build-bm68rgb_custom_rev1_THusb/dfu_single_bank.o
 .comment       0x000000000000004d       0x4e _build/build-bm68rgb_custom_rev1_THusb/ble_dfu.o
 .comment       0x000000000000004d       0x4e _build/build-bm68rgb_custom_rev1_THusb/ble_dis.o
 .comment       0x000000000000004d       0x4e _build/build-bm68rgb_custom_rev1_THusb/pstorage_raw.o
 .comment       0x000000000000004d       0x4e _build/build-bm68rgb_custom_rev1_THusb/app_timer.o
 .comment       0x000000000000004d       0x4e _build/build-bm68rgb_custom_rev1_THusb/app_scheduler.o
 .comment       0x000000000000004d       0x4e _build/build-bm68rgb_custom_rev1_THusb/app_error.o
 .comment       0x000000000000004d       0x4e _build/build-bm68rgb_custom_rev1_THusb/app_util_platform.o
 .comment       0x000000000000004d       0x4e _build/build-bm68rgb_custom_rev1_THusb/crc16.o
 .comment       0x000000000000004d       0x4e _build/build-bm68rgb_custom_rev1_THusb/hci_mem_pool.o
 .comment       0x000000000000004d       0x4e _build/build-bm68rgb_custom_rev1_THusb/hci_slip.o
 .comment       0x000000000000004d       0x4e _build/build-bm68rgb_custom_rev1_THusb/hci_transport.o
 .comment       0x000000000000004d       0x4e _build/build-bm68rgb_custom_rev1_THusb/pinconfig.o
 .comment       0x000000000000004d       0x4e _build/build-bm68rgb_custom_rev1_THusb/msc_uf2.o
 .comment       0x000000000000004d       0x4e _build/build-bm68rgb_custom_rev1_THusb/usb_desc.o
 .comment       0x000000000000004d       0x4e _build/build-bm68rgb_custom_rev1_THusb/usb.o
 .comment       0x000000000000004d       0x4e _build/build-bm68rgb_custom_rev1_THusb/ghostfat.o
 .comment       0x000000000000004d       0x4e _build/build-bm68rgb_custom_rev1_THusb/dcd_nrf5x.o
 .comment       0x000000000000004d       0x4e _build/build-bm68rgb_custom_rev1_THusb/tusb_fifo.o
 .comment       0x000000000000004d       0x4e _build/build-bm68rgb_custom_rev1_THusb/usbd.o
 .comment       0x000000000000004d       0x4e _build/build-bm68rgb_custom_rev1_THusb/usbd_control.o
 .comment       0x000000000000004d       0x4e _build/build-bm68rgb_custom_rev1_THusb/cdc_device.o
 .comment       0x000000000000004d       0x4e _build/build-bm68rgb_custom_rev1_THusb/msc_device.o
 .comment       0x000000000000004d       0x4e _build/build-bm68rgb_custom_rev1_THusb/tusb.o

.debug_frame    0x0000000000000000     0x2c38
 .debug_frame   0x0000000000000000       0x28 /usr/share/gcc-arm-none-eabi-10-2020-q4-major/bin/../lib/gcc/arm-none-eabi/10.2.1/../../../../arm-none-eabi/lib/thumb/v7e-m+fp/hard/libc.a(lib_a-exit.o)
 .debug_frame   0x0000000000000028       0x2c /usr/share/gcc-arm-none-eabi-10-2020-q4-major/bin/../lib/gcc/arm-none-eabi/10.2.1/../../../../arm-none-eabi/lib/thumb/v7e-m+fp/hard/libc.a(lib_a-init.o)
 .debug_frame   0x0000000000000054       0x2c /usr/share/gcc-arm-none-eabi-10-2020-q4-major/bin/../lib/gcc/arm-none-eabi/10.2.1/../../../../arm-none-eabi/lib/thumb/v7e-m+fp/hard/libc.a(lib_a-memset.o)
 .debug_frame   0x0000000000000080       0x68 /usr/share/gcc-arm-none-eabi-10-2020-q4-major/bin/../lib/gcc/arm-none-eabi/10.2.1/../../../../arm-none-eabi/lib/thumb/v7e-m+fp/hard/libc.a(lib_a-__call_atexit.o)
 .debug_frame   0x00000000000000e8       0x20 /usr/share/gcc-arm-none-eabi-10-2020-q4-major/bin/../lib/gcc/arm-none-eabi/10.2.1/../../../../arm-none-eabi/lib/thumb/v7e-m+fp/hard/libc.a(lib_a-atexit.o)
 .debug_frame   0x0000000000000108       0x34 /usr/share/gcc-arm-none-eabi-10-2020-q4-major/bin/../lib/gcc/arm-none-eabi/10.2.1/../../../../arm-none-eabi/lib/thumb/v7e-m+fp/hard/libc.a(lib_a-fini.o)
 .debug_frame   0x000000000000013c       0xb0 /usr/share/gcc-arm-none-eabi-10-2020-q4-major/bin/../lib/gcc/arm-none-eabi/10.2.1/../../../../arm-none-eabi/lib/thumb/v7e-m+fp/hard/libc.a(lib_a-lock.o)
 .debug_frame   0x00000000000001ec       0x34 /usr/share/gcc-arm-none-eabi-10-2020-q4-major/bin/../lib/gcc/arm-none-eabi/10.2.1/../../../../arm-none-eabi/lib/thumb/v7e-m+fp/hard/libc.a(lib_a-__atexit.o)
 .debug_frame   0x0000000000000220       0x20 /usr/share/gcc-arm-none-eabi-10-2020-q4-major/bin/../lib/gcc/arm-none-eabi/10.2.1/../../../../arm-none-eabi/lib/thumb/v7e-m+fp/hard/libnosys.a(_exit.o)
 .debug_frame   0x0000000000000240       0x58 _build/build-bm68rgb_custom_rev1_THusb/dfu_ble_svc.o
 .debug_frame   0x0000000000000298       0x44 _build/build-bm68rgb_custom_rev1_THusb/dfu_init.o
 .debug_frame   0x00000000000002dc       0x54 _build/build-bm68rgb_custom_rev1_THusb/flash_nrf5x.o
 .debug_frame   0x0000000000000330      0x180 _build/build-bm68rgb_custom_rev1_THusb/main.o
 .debug_frame   0x00000000000004b0       0xf4 _build/build-bm68rgb_custom_rev1_THusb/boards.o
 .debug_frame   0x00000000000005a4      0x150 _build/build-bm68rgb_custom_rev1_THusb/nrfx_power.o
 .debug_frame   0x00000000000006f4      0x160 _build/build-bm68rgb_custom_rev1_THusb/nrfx_nvmc.o
 .debug_frame   0x0000000000000854       0x58 _build/build-bm68rgb_custom_rev1_THusb/system_nrf52840.o
 .debug_frame   0x00000000000008ac      0x1b0 _build/build-bm68rgb_custom_rev1_THusb/bootloader.o
 .debug_frame   0x0000000000000a5c       0x40 _build/build-bm68rgb_custom_rev1_THusb/bootloader_settings.o
 .debug_frame   0x0000000000000a9c       0x40 _build/build-bm68rgb_custom_rev1_THusb/bootloader_util.o
 .debug_frame   0x0000000000000adc       0xb4 _build/build-bm68rgb_custom_rev1_THusb/dfu_transport_serial.o
 .debug_frame   0x0000000000000b90      0x2f0 _build/build-bm68rgb_custom_rev1_THusb/dfu_transport_ble.o
 .debug_frame   0x0000000000000e80      0x2a4 _build/build-bm68rgb_custom_rev1_THusb/dfu_single_bank.o
 .debug_frame   0x0000000000001124      0x140 _build/build-bm68rgb_custom_rev1_THusb/ble_dfu.o
 .debug_frame   0x0000000000001264       0x7c _build/build-bm68rgb_custom_rev1_THusb/ble_dis.o
 .debug_frame   0x00000000000012e0      0x128 _build/build-bm68rgb_custom_rev1_THusb/pstorage_raw.o
 .debug_frame   0x0000000000001408      0x18c _build/build-bm68rgb_custom_rev1_THusb/app_timer.o
 .debug_frame   0x0000000000001594       0x84 _build/build-bm68rgb_custom_rev1_THusb/app_scheduler.o
 .debug_frame   0x0000000000001618       0x5c _build/build-bm68rgb_custom_rev1_THusb/app_error.o
 .debug_frame   0x0000000000001674       0x84 _build/build-bm68rgb_custom_rev1_THusb/app_util_platform.o
 .debug_frame   0x00000000000016f8       0x20 _build/build-bm68rgb_custom_rev1_THusb/crc16.o
 .debug_frame   0x0000000000001718       0xb8 _build/build-bm68rgb_custom_rev1_THusb/hci_mem_pool.o
 .debug_frame   0x00000000000017d0      0x198 _build/build-bm68rgb_custom_rev1_THusb/hci_slip.o
 .debug_frame   0x0000000000001968      0x1a4 _build/build-bm68rgb_custom_rev1_THusb/hci_transport.o
 .debug_frame   0x0000000000001b0c       0xf0 _build/build-bm68rgb_custom_rev1_THusb/msc_uf2.o
 .debug_frame   0x0000000000001bfc       0x6c _build/build-bm68rgb_custom_rev1_THusb/usb_desc.o
 .debug_frame   0x0000000000001c68       0xc0 _build/build-bm68rgb_custom_rev1_THusb/usb.o
 .debug_frame   0x0000000000001d28       0xb0 _build/build-bm68rgb_custom_rev1_THusb/ghostfat.o
 .debug_frame   0x0000000000001dd8      0x2a8 _build/build-bm68rgb_custom_rev1_THusb/dcd_nrf5x.o
 .debug_frame   0x0000000000002080      0x2b0 _build/build-bm68rgb_custom_rev1_THusb/tusb_fifo.o
 .debug_frame   0x0000000000002330      0x338 _build/build-bm68rgb_custom_rev1_THusb/usbd.o
 .debug_frame   0x0000000000002668       0xd8 _build/build-bm68rgb_custom_rev1_THusb/usbd_control.o
 .debug_frame   0x0000000000002740      0x1f4 _build/build-bm68rgb_custom_rev1_THusb/cdc_device.o
 .debug_frame   0x0000000000002934      0x13c _build/build-bm68rgb_custom_rev1_THusb/msc_device.o
 .debug_frame   0x0000000000002a70       0x80 _build/build-bm68rgb_custom_rev1_THusb/tusb.o
 .debug_frame   0x0000000000002af0       0x28 /usr/share/gcc-arm-none-eabi-10-2020-q4-major/bin/../lib/gcc/arm-none-eabi/10.2.1/../../../../arm-none-eabi/lib/thumb/v7e-m+fp/hard/libc_nano.a(lib_a-memcmp.o)
 .debug_frame   0x0000000000002b18       0x28 /usr/share/gcc-arm-none-eabi-10-2020-q4-major/bin/../lib/gcc/arm-none-eabi/10.2.1/../../../../arm-none-eabi/lib/thumb/v7e-m+fp/hard/libc_nano.a(lib_a-memcpy-stub.o)
 .debug_frame   0x0000000000002b40       0x28 /usr/share/gcc-arm-none-eabi-10-2020-q4-major/bin/../lib/gcc/arm-none-eabi/10.2.1/../../../../arm-none-eabi/lib/thumb/v7e-m+fp/hard/libc_nano.a(lib_a-memmove.o)
 .debug_frame   0x0000000000002b68       0x28 /usr/share/gcc-arm-none-eabi-10-2020-q4-major/bin/../lib/gcc/arm-none-eabi/10.2.1/../../../../arm-none-eabi/lib/thumb/v7e-m+fp/hard/libc_nano.a(lib_a-strcat.o)
 .debug_frame   0x0000000000002b90       0x48 /usr/share/gcc-arm-none-eabi-10-2020-q4-major/bin/../lib/gcc/arm-none-eabi/10.2.1/../../../../arm-none-eabi/lib/thumb/v7e-m+fp/hard/libc_nano.a(lib_a-utoa.o)
 .debug_frame   0x0000000000002bd8       0x2c /usr/share/gcc-arm-none-eabi-10-2020-q4-major/bin/../lib/gcc/arm-none-eabi/10.2.1/thumb/v7e-m+fp/hard/libgcc.a(_aeabi_uldivmod.o)
 .debug_frame   0x0000000000002c04       0x34 /usr/share/gcc-arm-none-eabi-10-2020-q4-major/bin/../lib/gcc/arm-none-eabi/10.2.1/thumb/v7e-m+fp/hard/libgcc.a(_udivmoddi4.o)

.debug_info     0x0000000000000000    0x2d491
 .debug_info    0x0000000000000000      0x4c7 _build/build-bm68rgb_custom_rev1_THusb/dfu_ble_svc.o
 .debug_info    0x00000000000004c7      0x2be _build/build-bm68rgb_custom_rev1_THusb/dfu_init.o
 .debug_info    0x0000000000000785      0x25d _build/build-bm68rgb_custom_rev1_THusb/flash_nrf5x.o
 .debug_info    0x00000000000009e2     0x3b51 _build/build-bm68rgb_custom_rev1_THusb/main.o
 .debug_info    0x0000000000004533     0x1c22 _build/build-bm68rgb_custom_rev1_THusb/boards.o
 .debug_info    0x0000000000006155     0x1c13 _build/build-bm68rgb_custom_rev1_THusb/nrfx_power.o
 .debug_info    0x0000000000007d68     0x173f _build/build-bm68rgb_custom_rev1_THusb/nrfx_nvmc.o
 .debug_info    0x00000000000094a7     0x1652 _build/build-bm68rgb_custom_rev1_THusb/system_nrf52840.o
 .debug_info    0x000000000000aaf9     0x156d _build/build-bm68rgb_custom_rev1_THusb/bootloader.o
 .debug_info    0x000000000000c066      0x23e _build/build-bm68rgb_custom_rev1_THusb/bootloader_settings.o
 .debug_info    0x000000000000c2a4       0xf5 _build/build-bm68rgb_custom_rev1_THusb/bootloader_util.o
 .debug_info    0x000000000000c399      0x970 _build/build-bm68rgb_custom_rev1_THusb/dfu_transport_serial.o
 .debug_info    0x000000000000cd09     0x4b32 _build/build-bm68rgb_custom_rev1_THusb/dfu_transport_ble.o
 .debug_info    0x000000000001183b     0x1684 _build/build-bm68rgb_custom_rev1_THusb/dfu_single_bank.o
 .debug_info    0x0000000000012ebf     0x2fbd _build/build-bm68rgb_custom_rev1_THusb/ble_dfu.o
 .debug_info    0x0000000000015e7c      0xc10 _build/build-bm68rgb_custom_rev1_THusb/ble_dis.o
 .debug_info    0x0000000000016a8c      0xf95 _build/build-bm68rgb_custom_rev1_THusb/pstorage_raw.o
 .debug_info    0x0000000000017a21     0x1da8 _build/build-bm68rgb_custom_rev1_THusb/app_timer.o
 .debug_info    0x00000000000197c9      0x53c _build/build-bm68rgb_custom_rev1_THusb/app_scheduler.o
 .debug_info    0x0000000000019d05      0x35c _build/build-bm68rgb_custom_rev1_THusb/app_error.o
 .debug_info    0x000000000001a061      0xa61 _build/build-bm68rgb_custom_rev1_THusb/app_util_platform.o
 .debug_info    0x000000000001aac2      0x15b _build/build-bm68rgb_custom_rev1_THusb/crc16.o
 .debug_info    0x000000000001ac1d      0x3be _build/build-bm68rgb_custom_rev1_THusb/hci_mem_pool.o
 .debug_info    0x000000000001afdb      0x8d2 _build/build-bm68rgb_custom_rev1_THusb/hci_slip.o
 .debug_info    0x000000000001b8ad     0x13ca _build/build-bm68rgb_custom_rev1_THusb/hci_transport.o
 .debug_info    0x000000000001cc77       0xb6 _build/build-bm68rgb_custom_rev1_THusb/pinconfig.o
 .debug_info    0x000000000001cd2d      0xb74 _build/build-bm68rgb_custom_rev1_THusb/msc_uf2.o
 .debug_info    0x000000000001d8a1      0xc2f _build/build-bm68rgb_custom_rev1_THusb/usb_desc.o
 .debug_info    0x000000000001e4d0      0xee4 _build/build-bm68rgb_custom_rev1_THusb/usb.o
 .debug_info    0x000000000001f3b4      0xd80 _build/build-bm68rgb_custom_rev1_THusb/ghostfat.o
 .debug_info    0x0000000000020134     0x31c1 _build/build-bm68rgb_custom_rev1_THusb/dcd_nrf5x.o
 .debug_info    0x00000000000232f5     0x200a _build/build-bm68rgb_custom_rev1_THusb/tusb_fifo.o
 .debug_info    0x00000000000252ff     0x314d _build/build-bm68rgb_custom_rev1_THusb/usbd.o
 .debug_info    0x000000000002844c      0x85f _build/build-bm68rgb_custom_rev1_THusb/usbd_control.o
 .debug_info    0x0000000000028cab     0x17ec _build/build-bm68rgb_custom_rev1_THusb/cdc_device.o
 .debug_info    0x000000000002a497     0x2754 _build/build-bm68rgb_custom_rev1_THusb/msc_device.o
 .debug_info    0x000000000002cbeb      0x880 _build/build-bm68rgb_custom_rev1_THusb/tusb.o
 .debug_info    0x000000000002d46b       0x26 _build/build-bm68rgb_custom_rev1_THusb/gcc_startup_nrf52840.o

.debug_abbrev   0x0000000000000000     0x78a1
 .debug_abbrev  0x0000000000000000      0x25b _build/build-bm68rgb_custom_rev1_THusb/dfu_ble_svc.o
 .debug_abbrev  0x000000000000025b      0x143 _build/build-bm68rgb_custom_rev1_THusb/dfu_init.o
 .debug_abbrev  0x000000000000039e      0x126 _build/build-bm68rgb_custom_rev1_THusb/flash_nrf5x.o
 .debug_abbrev  0x00000000000004c4      0x5c8 _build/build-bm68rgb_custom_rev1_THusb/main.o
 .debug_abbrev  0x0000000000000a8c      0x45b _build/build-bm68rgb_custom_rev1_THusb/boards.o
 .debug_abbrev  0x0000000000000ee7      0x453 _build/build-bm68rgb_custom_rev1_THusb/nrfx_power.o
 .debug_abbrev  0x000000000000133a      0x49f _build/build-bm68rgb_custom_rev1_THusb/nrfx_nvmc.o
 .debug_abbrev  0x00000000000017d9      0x296 _build/build-bm68rgb_custom_rev1_THusb/system_nrf52840.o
 .debug_abbrev  0x0000000000001a6f      0x506 _build/build-bm68rgb_custom_rev1_THusb/bootloader.o
 .debug_abbrev  0x0000000000001f75      0x10d _build/build-bm68rgb_custom_rev1_THusb/bootloader_settings.o
 .debug_abbrev  0x0000000000002082       0x9b _build/build-bm68rgb_custom_rev1_THusb/bootloader_util.o
 .debug_abbrev  0x000000000000211d      0x2d8 _build/build-bm68rgb_custom_rev1_THusb/dfu_transport_serial.o
 .debug_abbrev  0x00000000000023f5      0x52e _build/build-bm68rgb_custom_rev1_THusb/dfu_transport_ble.o
 .debug_abbrev  0x0000000000002923      0x4c1 _build/build-bm68rgb_custom_rev1_THusb/dfu_single_bank.o
 .debug_abbrev  0x0000000000002de4      0x419 _build/build-bm68rgb_custom_rev1_THusb/ble_dfu.o
 .debug_abbrev  0x00000000000031fd      0x2f4 _build/build-bm68rgb_custom_rev1_THusb/ble_dis.o
 .debug_abbrev  0x00000000000034f1      0x388 _build/build-bm68rgb_custom_rev1_THusb/pstorage_raw.o
 .debug_abbrev  0x0000000000003879      0x50e _build/build-bm68rgb_custom_rev1_THusb/app_timer.o
 .debug_abbrev  0x0000000000003d87      0x281 _build/build-bm68rgb_custom_rev1_THusb/app_scheduler.o
 .debug_abbrev  0x0000000000004008      0x138 _build/build-bm68rgb_custom_rev1_THusb/app_error.o
 .debug_abbrev  0x0000000000004140      0x30f _build/build-bm68rgb_custom_rev1_THusb/app_util_platform.o
 .debug_abbrev  0x000000000000444f       0x96 _build/build-bm68rgb_custom_rev1_THusb/crc16.o
 .debug_abbrev  0x00000000000044e5      0x143 _build/build-bm68rgb_custom_rev1_THusb/hci_mem_pool.o
 .debug_abbrev  0x0000000000004628      0x412 _build/build-bm68rgb_custom_rev1_THusb/hci_slip.o
 .debug_abbrev  0x0000000000004a3a      0x3e9 _build/build-bm68rgb_custom_rev1_THusb/hci_transport.o
 .debug_abbrev  0x0000000000004e23       0x61 _build/build-bm68rgb_custom_rev1_THusb/pinconfig.o
 .debug_abbrev  0x0000000000004e84      0x268 _build/build-bm68rgb_custom_rev1_THusb/msc_uf2.o
 .debug_abbrev  0x00000000000050ec      0x233 _build/build-bm68rgb_custom_rev1_THusb/usb_desc.o
 .debug_abbrev  0x000000000000531f      0x29e _build/build-bm68rgb_custom_rev1_THusb/usb.o
 .debug_abbrev  0x00000000000055bd      0x340 _build/build-bm68rgb_custom_rev1_THusb/ghostfat.o
 .debug_abbrev  0x00000000000058fd      0x60d _build/build-bm68rgb_custom_rev1_THusb/dcd_nrf5x.o
 .debug_abbrev  0x0000000000005f0a      0x44b _build/build-bm68rgb_custom_rev1_THusb/tusb_fifo.o
 .debug_abbrev  0x0000000000006355      0x5c6 _build/build-bm68rgb_custom_rev1_THusb/usbd.o
 .debug_abbrev  0x000000000000691b      0x355 _build/build-bm68rgb_custom_rev1_THusb/usbd_control.o
 .debug_abbrev  0x0000000000006c70      0x49f _build/build-bm68rgb_custom_rev1_THusb/cdc_device.o
 .debug_abbrev  0x000000000000710f      0x520 _build/build-bm68rgb_custom_rev1_THusb/msc_device.o
 .debug_abbrev  0x000000000000762f      0x25e _build/build-bm68rgb_custom_rev1_THusb/tusb.o
 .debug_abbrev  0x000000000000788d       0x14 _build/build-bm68rgb_custom_rev1_THusb/gcc_startup_nrf52840.o

.debug_loc      0x0000000000000000    0x11ecf
 .debug_loc     0x0000000000000000      0x2ab _build/build-bm68rgb_custom_rev1_THusb/dfu_ble_svc.o
 .debug_loc     0x00000000000002ab      0x1d7 _build/build-bm68rgb_custom_rev1_THusb/dfu_init.o
 .debug_loc     0x0000000000000482      0x123 _build/build-bm68rgb_custom_rev1_THusb/flash_nrf5x.o
 .debug_loc     0x00000000000005a5      0x4d4 _build/build-bm68rgb_custom_rev1_THusb/main.o
 .debug_loc     0x0000000000000a79      0x8f5 _build/build-bm68rgb_custom_rev1_THusb/boards.o
 .debug_loc     0x000000000000136e      0x549 _build/build-bm68rgb_custom_rev1_THusb/nrfx_power.o
 .debug_loc     0x00000000000018b7      0xc06 _build/build-bm68rgb_custom_rev1_THusb/nrfx_nvmc.o
 .debug_loc     0x00000000000024bd       0xfb _build/build-bm68rgb_custom_rev1_THusb/system_nrf52840.o
 .debug_loc     0x00000000000025b8      0x7ad _build/build-bm68rgb_custom_rev1_THusb/bootloader.o
 .debug_loc     0x0000000000002d65       0x47 _build/build-bm68rgb_custom_rev1_THusb/bootloader_util.o
 .debug_loc     0x0000000000002dac      0x4be _build/build-bm68rgb_custom_rev1_THusb/dfu_transport_serial.o
 .debug_loc     0x000000000000326a     0x134c _build/build-bm68rgb_custom_rev1_THusb/dfu_transport_ble.o
 .debug_loc     0x00000000000045b6      0xb7a _build/build-bm68rgb_custom_rev1_THusb/dfu_single_bank.o
 .debug_loc     0x0000000000005130      0x958 _build/build-bm68rgb_custom_rev1_THusb/ble_dfu.o
 .debug_loc     0x0000000000005a88      0x309 _build/build-bm68rgb_custom_rev1_THusb/ble_dis.o
 .debug_loc     0x0000000000005d91      0x8fb _build/build-bm68rgb_custom_rev1_THusb/pstorage_raw.o
 .debug_loc     0x000000000000668c      0xe21 _build/build-bm68rgb_custom_rev1_THusb/app_timer.o
 .debug_loc     0x00000000000074ad      0x326 _build/build-bm68rgb_custom_rev1_THusb/app_scheduler.o
 .debug_loc     0x00000000000077d3      0x158 _build/build-bm68rgb_custom_rev1_THusb/app_error.o
 .debug_loc     0x000000000000792b      0x18f _build/build-bm68rgb_custom_rev1_THusb/app_util_platform.o
 .debug_loc     0x0000000000007aba      0x17e _build/build-bm68rgb_custom_rev1_THusb/crc16.o
 .debug_loc     0x0000000000007c38      0x330 _build/build-bm68rgb_custom_rev1_THusb/hci_mem_pool.o
 .debug_loc     0x0000000000007f68      0x31d _build/build-bm68rgb_custom_rev1_THusb/hci_slip.o
 .debug_loc     0x0000000000008285      0xb43 _build/build-bm68rgb_custom_rev1_THusb/hci_transport.o
 .debug_loc     0x0000000000008dc8      0x4ba _build/build-bm68rgb_custom_rev1_THusb/msc_uf2.o
 .debug_loc     0x0000000000009282      0x1ee _build/build-bm68rgb_custom_rev1_THusb/usb_desc.o
 .debug_loc     0x0000000000009470      0x10b _build/build-bm68rgb_custom_rev1_THusb/usb.o
 .debug_loc     0x000000000000957b      0x726 _build/build-bm68rgb_custom_rev1_THusb/ghostfat.o
 .debug_loc     0x0000000000009ca1     0x141f _build/build-bm68rgb_custom_rev1_THusb/dcd_nrf5x.o
 .debug_loc     0x000000000000b0c0     0x22c4 _build/build-bm68rgb_custom_rev1_THusb/tusb_fifo.o
 .debug_loc     0x000000000000d384     0x1de5 _build/build-bm68rgb_custom_rev1_THusb/usbd.o
 .debug_loc     0x000000000000f169      0x463 _build/build-bm68rgb_custom_rev1_THusb/usbd_control.o
 .debug_loc     0x000000000000f5cc      0xcbb _build/build-bm68rgb_custom_rev1_THusb/cdc_device.o
 .debug_loc     0x0000000000010287     0x1937 _build/build-bm68rgb_custom_rev1_THusb/msc_device.o
 .debug_loc     0x0000000000011bbe      0x311 _build/build-bm68rgb_custom_rev1_THusb/tusb.o

.debug_aranges  0x0000000000000000     0x1030
 .debug_aranges
                0x0000000000000000       0x30 _build/build-bm68rgb_custom_rev1_THusb/dfu_ble_svc.o
 .debug_aranges
                0x0000000000000030       0x28 _build/build-bm68rgb_custom_rev1_THusb/dfu_init.o
 .debug_aranges
                0x0000000000000058       0x28 _build/build-bm68rgb_custom_rev1_THusb/flash_nrf5x.o
 .debug_aranges
                0x0000000000000080       0xa8 _build/build-bm68rgb_custom_rev1_THusb/main.o
 .debug_aranges
                0x0000000000000128       0x70 _build/build-bm68rgb_custom_rev1_THusb/boards.o
 .debug_aranges
                0x0000000000000198       0xa8 _build/build-bm68rgb_custom_rev1_THusb/nrfx_power.o
 .debug_aranges
                0x0000000000000240       0x98 _build/build-bm68rgb_custom_rev1_THusb/nrfx_nvmc.o
 .debug_aranges
                0x00000000000002d8       0x38 _build/build-bm68rgb_custom_rev1_THusb/system_nrf52840.o
 .debug_aranges
                0x0000000000000310       0x90 _build/build-bm68rgb_custom_rev1_THusb/bootloader.o
 .debug_aranges
                0x00000000000003a0       0x28 _build/build-bm68rgb_custom_rev1_THusb/bootloader_settings.o
 .debug_aranges
                0x00000000000003c8       0x28 _build/build-bm68rgb_custom_rev1_THusb/bootloader_util.o
 .debug_aranges
                0x00000000000003f0       0x48 _build/build-bm68rgb_custom_rev1_THusb/dfu_transport_serial.o
 .debug_aranges
                0x0000000000000438      0x120 _build/build-bm68rgb_custom_rev1_THusb/dfu_transport_ble.o
 .debug_aranges
                0x0000000000000558       0xc8 _build/build-bm68rgb_custom_rev1_THusb/dfu_single_bank.o
 .debug_aranges
                0x0000000000000620       0x70 _build/build-bm68rgb_custom_rev1_THusb/ble_dfu.o
 .debug_aranges
                0x0000000000000690       0x38 _build/build-bm68rgb_custom_rev1_THusb/ble_dis.o
 .debug_aranges
                0x00000000000006c8       0x78 _build/build-bm68rgb_custom_rev1_THusb/pstorage_raw.o
 .debug_aranges
                0x0000000000000740       0x98 _build/build-bm68rgb_custom_rev1_THusb/app_timer.o
 .debug_aranges
                0x00000000000007d8       0x38 _build/build-bm68rgb_custom_rev1_THusb/app_scheduler.o
 .debug_aranges
                0x0000000000000810       0x30 _build/build-bm68rgb_custom_rev1_THusb/app_error.o
 .debug_aranges
                0x0000000000000840       0x48 _build/build-bm68rgb_custom_rev1_THusb/app_util_platform.o
 .debug_aranges
                0x0000000000000888       0x20 _build/build-bm68rgb_custom_rev1_THusb/crc16.o
 .debug_aranges
                0x00000000000008a8       0x58 _build/build-bm68rgb_custom_rev1_THusb/hci_mem_pool.o
 .debug_aranges
                0x0000000000000900       0x90 _build/build-bm68rgb_custom_rev1_THusb/hci_slip.o
 .debug_aranges
                0x0000000000000990       0x80 _build/build-bm68rgb_custom_rev1_THusb/hci_transport.o
 .debug_aranges
                0x0000000000000a10       0x18 _build/build-bm68rgb_custom_rev1_THusb/pinconfig.o
 .debug_aranges
                0x0000000000000a28       0x60 _build/build-bm68rgb_custom_rev1_THusb/msc_uf2.o
 .debug_aranges
                0x0000000000000a88       0x38 _build/build-bm68rgb_custom_rev1_THusb/usb_desc.o
 .debug_aranges
                0x0000000000000ac0       0x68 _build/build-bm68rgb_custom_rev1_THusb/usb.o
 .debug_aranges
                0x0000000000000b28       0x38 _build/build-bm68rgb_custom_rev1_THusb/ghostfat.o
 .debug_aranges
                0x0000000000000b60       0xf8 _build/build-bm68rgb_custom_rev1_THusb/dcd_nrf5x.o
 .debug_aranges
                0x0000000000000c58       0xf8 _build/build-bm68rgb_custom_rev1_THusb/tusb_fifo.o
 .debug_aranges
                0x0000000000000d50      0x118 _build/build-bm68rgb_custom_rev1_THusb/usbd.o
 .debug_aranges
                0x0000000000000e68       0x58 _build/build-bm68rgb_custom_rev1_THusb/usbd_control.o
 .debug_aranges
                0x0000000000000ec0       0xa8 _build/build-bm68rgb_custom_rev1_THusb/cdc_device.o
 .debug_aranges
                0x0000000000000f68       0x68 _build/build-bm68rgb_custom_rev1_THusb/msc_device.o
 .debug_aranges
                0x0000000000000fd0       0x40 _build/build-bm68rgb_custom_rev1_THusb/tusb.o
 .debug_aranges
                0x0000000000001010       0x20 _build/build-bm68rgb_custom_rev1_THusb/gcc_startup_nrf52840.o

.debug_ranges   0x0000000000000000     0x3350
 .debug_ranges  0x0000000000000000       0x50 _build/build-bm68rgb_custom_rev1_THusb/dfu_ble_svc.o
 .debug_ranges  0x0000000000000050       0x18 _build/build-bm68rgb_custom_rev1_THusb/dfu_init.o
 .debug_ranges  0x0000000000000068       0x18 _build/build-bm68rgb_custom_rev1_THusb/flash_nrf5x.o
 .debug_ranges  0x0000000000000080      0x170 _build/build-bm68rgb_custom_rev1_THusb/main.o
 .debug_ranges  0x00000000000001f0      0x1f0 _build/build-bm68rgb_custom_rev1_THusb/boards.o
 .debug_ranges  0x00000000000003e0      0x180 _build/build-bm68rgb_custom_rev1_THusb/nrfx_power.o
 .debug_ranges  0x0000000000000560      0x2e0 _build/build-bm68rgb_custom_rev1_THusb/nrfx_nvmc.o
 .debug_ranges  0x0000000000000840       0x40 _build/build-bm68rgb_custom_rev1_THusb/system_nrf52840.o
 .debug_ranges  0x0000000000000880      0x160 _build/build-bm68rgb_custom_rev1_THusb/bootloader.o
 .debug_ranges  0x00000000000009e0       0x18 _build/build-bm68rgb_custom_rev1_THusb/bootloader_settings.o
 .debug_ranges  0x00000000000009f8       0x18 _build/build-bm68rgb_custom_rev1_THusb/bootloader_util.o
 .debug_ranges  0x0000000000000a10       0x98 _build/build-bm68rgb_custom_rev1_THusb/dfu_transport_serial.o
 .debug_ranges  0x0000000000000aa8      0x378 _build/build-bm68rgb_custom_rev1_THusb/dfu_transport_ble.o
 .debug_ranges  0x0000000000000e20      0x208 _build/build-bm68rgb_custom_rev1_THusb/dfu_single_bank.o
 .debug_ranges  0x0000000000001028      0x170 _build/build-bm68rgb_custom_rev1_THusb/ble_dfu.o
 .debug_ranges  0x0000000000001198       0xe0 _build/build-bm68rgb_custom_rev1_THusb/ble_dis.o
 .debug_ranges  0x0000000000001278       0xd0 _build/build-bm68rgb_custom_rev1_THusb/pstorage_raw.o
 .debug_ranges  0x0000000000001348      0x450 _build/build-bm68rgb_custom_rev1_THusb/app_timer.o
 .debug_ranges  0x0000000000001798       0xb0 _build/build-bm68rgb_custom_rev1_THusb/app_scheduler.o
 .debug_ranges  0x0000000000001848       0x20 _build/build-bm68rgb_custom_rev1_THusb/app_error.o
 .debug_ranges  0x0000000000001868       0xa0 _build/build-bm68rgb_custom_rev1_THusb/app_util_platform.o
 .debug_ranges  0x0000000000001908       0x28 _build/build-bm68rgb_custom_rev1_THusb/crc16.o
 .debug_ranges  0x0000000000001930       0x48 _build/build-bm68rgb_custom_rev1_THusb/hci_mem_pool.o
 .debug_ranges  0x0000000000001978      0x140 _build/build-bm68rgb_custom_rev1_THusb/hci_slip.o
 .debug_ranges  0x0000000000001ab8      0x2b0 _build/build-bm68rgb_custom_rev1_THusb/hci_transport.o
 .debug_ranges  0x0000000000001d68       0x68 _build/build-bm68rgb_custom_rev1_THusb/msc_uf2.o
 .debug_ranges  0x0000000000001dd0       0x60 _build/build-bm68rgb_custom_rev1_THusb/usb_desc.o
 .debug_ranges  0x0000000000001e30       0x70 _build/build-bm68rgb_custom_rev1_THusb/usb.o
 .debug_ranges  0x0000000000001ea0       0xf8 _build/build-bm68rgb_custom_rev1_THusb/ghostfat.o
 .debug_ranges  0x0000000000001f98      0x570 _build/build-bm68rgb_custom_rev1_THusb/dcd_nrf5x.o
 .debug_ranges  0x0000000000002508      0x420 _build/build-bm68rgb_custom_rev1_THusb/tusb_fifo.o
 .debug_ranges  0x0000000000002928      0x3c0 _build/build-bm68rgb_custom_rev1_THusb/usbd.o
 .debug_ranges  0x0000000000002ce8       0xa8 _build/build-bm68rgb_custom_rev1_THusb/usbd_control.o
 .debug_ranges  0x0000000000002d90      0x180 _build/build-bm68rgb_custom_rev1_THusb/cdc_device.o
 .debug_ranges  0x0000000000002f10      0x3e0 _build/build-bm68rgb_custom_rev1_THusb/msc_device.o
 .debug_ranges  0x00000000000032f0       0x60 _build/build-bm68rgb_custom_rev1_THusb/tusb.o

.debug_line     0x0000000000000000    0x127b3
 .debug_line    0x0000000000000000      0x305 _build/build-bm68rgb_custom_rev1_THusb/dfu_ble_svc.o
 .debug_line    0x0000000000000305      0x2af _build/build-bm68rgb_custom_rev1_THusb/dfu_init.o
 .debug_line    0x00000000000005b4      0x205 _build/build-bm68rgb_custom_rev1_THusb/flash_nrf5x.o
 .debug_line    0x00000000000007b9      0xa39 _build/build-bm68rgb_custom_rev1_THusb/main.o
 .debug_line    0x00000000000011f2      0x951 _build/build-bm68rgb_custom_rev1_THusb/boards.o
 .debug_line    0x0000000000001b43      0x844 _build/build-bm68rgb_custom_rev1_THusb/nrfx_power.o
 .debug_line    0x0000000000002387      0x9d0 _build/build-bm68rgb_custom_rev1_THusb/nrfx_nvmc.o
 .debug_line    0x0000000000002d57      0x572 _build/build-bm68rgb_custom_rev1_THusb/system_nrf52840.o
 .debug_line    0x00000000000032c9      0xceb _build/build-bm68rgb_custom_rev1_THusb/bootloader.o
 .debug_line    0x0000000000003fb4      0x1aa _build/build-bm68rgb_custom_rev1_THusb/bootloader_settings.o
 .debug_line    0x000000000000415e      0x14d _build/build-bm68rgb_custom_rev1_THusb/bootloader_util.o
 .debug_line    0x00000000000042ab      0x5c7 _build/build-bm68rgb_custom_rev1_THusb/dfu_transport_serial.o
 .debug_line    0x0000000000004872     0x10d3 _build/build-bm68rgb_custom_rev1_THusb/dfu_transport_ble.o
 .debug_line    0x0000000000005945      0xe1a _build/build-bm68rgb_custom_rev1_THusb/dfu_single_bank.o
 .debug_line    0x000000000000675f      0xb9b _build/build-bm68rgb_custom_rev1_THusb/ble_dfu.o
 .debug_line    0x00000000000072fa      0x5b1 _build/build-bm68rgb_custom_rev1_THusb/ble_dis.o
 .debug_line    0x00000000000078ab      0x60a _build/build-bm68rgb_custom_rev1_THusb/pstorage_raw.o
 .debug_line    0x0000000000007eb5      0xece _build/build-bm68rgb_custom_rev1_THusb/app_timer.o
 .debug_line    0x0000000000008d83      0x444 _build/build-bm68rgb_custom_rev1_THusb/app_scheduler.o
 .debug_line    0x00000000000091c7      0x298 _build/build-bm68rgb_custom_rev1_THusb/app_error.o
 .debug_line    0x000000000000945f      0x495 _build/build-bm68rgb_custom_rev1_THusb/app_util_platform.o
 .debug_line    0x00000000000098f4      0x1be _build/build-bm68rgb_custom_rev1_THusb/crc16.o
 .debug_line    0x0000000000009ab2      0x3ca _build/build-bm68rgb_custom_rev1_THusb/hci_mem_pool.o
 .debug_line    0x0000000000009e7c      0x63b _build/build-bm68rgb_custom_rev1_THusb/hci_slip.o
 .debug_line    0x000000000000a4b7      0xb20 _build/build-bm68rgb_custom_rev1_THusb/hci_transport.o
 .debug_line    0x000000000000afd7      0x106 _build/build-bm68rgb_custom_rev1_THusb/pinconfig.o
 .debug_line    0x000000000000b0dd      0x4ea _build/build-bm68rgb_custom_rev1_THusb/msc_uf2.o
 .debug_line    0x000000000000b5c7      0x33a _build/build-bm68rgb_custom_rev1_THusb/usb_desc.o
 .debug_line    0x000000000000b901      0x3cc _build/build-bm68rgb_custom_rev1_THusb/usb.o
 .debug_line    0x000000000000bccd      0x785 _build/build-bm68rgb_custom_rev1_THusb/ghostfat.o
 .debug_line    0x000000000000c452     0x197c _build/build-bm68rgb_custom_rev1_THusb/dcd_nrf5x.o
 .debug_line    0x000000000000ddce      0xf0f _build/build-bm68rgb_custom_rev1_THusb/tusb_fifo.o
 .debug_line    0x000000000000ecdd     0x1620 _build/build-bm68rgb_custom_rev1_THusb/usbd.o
 .debug_line    0x00000000000102fd      0x542 _build/build-bm68rgb_custom_rev1_THusb/usbd_control.o
 .debug_line    0x000000000001083f      0xa0b _build/build-bm68rgb_custom_rev1_THusb/cdc_device.o
 .debug_line    0x000000000001124a     0x1130 _build/build-bm68rgb_custom_rev1_THusb/msc_device.o
 .debug_line    0x000000000001237a      0x3c6 _build/build-bm68rgb_custom_rev1_THusb/tusb.o
 .debug_line    0x0000000000012740       0x73 _build/build-bm68rgb_custom_rev1_THusb/gcc_startup_nrf52840.o

.debug_str      0x0000000000000000     0xd01f
 .debug_str     0x0000000000000000      0x316 _build/build-bm68rgb_custom_rev1_THusb/dfu_ble_svc.o
                                        0x397 (size before relaxing)
 .debug_str     0x0000000000000316      0x117 _build/build-bm68rgb_custom_rev1_THusb/dfu_init.o
                                        0x31d (size before relaxing)
 .debug_str     0x000000000000042d       0x92 _build/build-bm68rgb_custom_rev1_THusb/flash_nrf5x.o
                                        0x260 (size before relaxing)
 .debug_str     0x00000000000004bf     0x2f32 _build/build-bm68rgb_custom_rev1_THusb/main.o
                                       0x336b (size before relaxing)
 .debug_str     0x00000000000033f1      0x8d5 _build/build-bm68rgb_custom_rev1_THusb/boards.o
                                       0x10cb (size before relaxing)
 .debug_str     0x0000000000003cc6      0xa80 _build/build-bm68rgb_custom_rev1_THusb/nrfx_power.o
                                       0x17be (size before relaxing)
 .debug_str     0x0000000000004746      0x5ca _build/build-bm68rgb_custom_rev1_THusb/nrfx_nvmc.o
                                        0xa1a (size before relaxing)
 .debug_str     0x0000000000004d10      0x1a4 _build/build-bm68rgb_custom_rev1_THusb/system_nrf52840.o
                                        0x8db (size before relaxing)
 .debug_str     0x0000000000004eb4      0x769 _build/build-bm68rgb_custom_rev1_THusb/bootloader.o
                                        0xecb (size before relaxing)
 .debug_str     0x000000000000561d       0xda _build/build-bm68rgb_custom_rev1_THusb/bootloader_settings.o
                                        0x36d (size before relaxing)
 .debug_str     0x00000000000056f7       0x61 _build/build-bm68rgb_custom_rev1_THusb/bootloader_util.o
                                        0x230 (size before relaxing)
 .debug_str     0x0000000000005758      0x322 _build/build-bm68rgb_custom_rev1_THusb/dfu_transport_serial.o
                                        0x71b (size before relaxing)
 .debug_str     0x0000000000005a7a     0x16e0 _build/build-bm68rgb_custom_rev1_THusb/dfu_transport_ble.o
                                       0x32af (size before relaxing)
 .debug_str     0x000000000000715a      0x34a _build/build-bm68rgb_custom_rev1_THusb/dfu_single_bank.o
                                        0xca1 (size before relaxing)
 .debug_str     0x00000000000074a4      0x46f _build/build-bm68rgb_custom_rev1_THusb/ble_dfu.o
                                       0x2324 (size before relaxing)
 .debug_str     0x0000000000007913       0xf8 _build/build-bm68rgb_custom_rev1_THusb/ble_dis.o
                                        0x942 (size before relaxing)
 .debug_str     0x0000000000007a0b      0x225 _build/build-bm68rgb_custom_rev1_THusb/pstorage_raw.o
                                        0xca6 (size before relaxing)
 .debug_str     0x0000000000007c30      0x697 _build/build-bm68rgb_custom_rev1_THusb/app_timer.o
                                        0xebd (size before relaxing)
 .debug_str     0x00000000000082c7      0x17a _build/build-bm68rgb_custom_rev1_THusb/app_scheduler.o
                                        0x454 (size before relaxing)
 .debug_str     0x0000000000008441       0xcf _build/build-bm68rgb_custom_rev1_THusb/app_error.o
                                        0x318 (size before relaxing)
 .debug_str     0x0000000000008510      0x22b _build/build-bm68rgb_custom_rev1_THusb/app_util_platform.o
                                        0x881 (size before relaxing)
 .debug_str     0x000000000000873b       0x2b _build/build-bm68rgb_custom_rev1_THusb/crc16.o
                                        0x226 (size before relaxing)
 .debug_str     0x0000000000008766      0x13f _build/build-bm68rgb_custom_rev1_THusb/hci_mem_pool.o
                                        0x3cf (size before relaxing)
 .debug_str     0x00000000000088a5      0x377 _build/build-bm68rgb_custom_rev1_THusb/hci_slip.o
                                        0x5c8 (size before relaxing)
 .debug_str     0x0000000000008c1c      0x50e _build/build-bm68rgb_custom_rev1_THusb/hci_transport.o
                                        0xb06 (size before relaxing)
 .debug_str     0x000000000000912a       0x42 _build/build-bm68rgb_custom_rev1_THusb/pinconfig.o
                                        0x1f7 (size before relaxing)
 .debug_str     0x000000000000916c      0x3ee _build/build-bm68rgb_custom_rev1_THusb/msc_uf2.o
                                        0xa91 (size before relaxing)
 .debug_str     0x000000000000955a      0xe0c _build/build-bm68rgb_custom_rev1_THusb/usb_desc.o
                                       0x1182 (size before relaxing)
 .debug_str     0x000000000000a366      0x118 _build/build-bm68rgb_custom_rev1_THusb/usb.o
                                        0xfa7 (size before relaxing)
 .debug_str     0x000000000000a47e      0x2ee _build/build-bm68rgb_custom_rev1_THusb/ghostfat.o
                                        0x5e9 (size before relaxing)
 .debug_str     0x000000000000a76c      0xcfc _build/build-bm68rgb_custom_rev1_THusb/dcd_nrf5x.o
                                       0x1f8b (size before relaxing)
 .debug_str     0x000000000000b468      0x3e4 _build/build-bm68rgb_custom_rev1_THusb/tusb_fifo.o
                                        0x6c6 (size before relaxing)
 .debug_str     0x000000000000b84c      0x905 _build/build-bm68rgb_custom_rev1_THusb/usbd.o
                                       0x14dd (size before relaxing)
 .debug_str     0x000000000000c151       0xd8 _build/build-bm68rgb_custom_rev1_THusb/usbd_control.o
                                        0x50b (size before relaxing)
 .debug_str     0x000000000000c229      0x6f8 _build/build-bm68rgb_custom_rev1_THusb/cdc_device.o
                                       0x1438 (size before relaxing)
 .debug_str     0x000000000000c921      0x671 _build/build-bm68rgb_custom_rev1_THusb/msc_device.o
                                       0x1463 (size before relaxing)
 .debug_str     0x000000000000cf92       0x5b _build/build-bm68rgb_custom_rev1_THusb/tusb.o
                                        0x72e (size before relaxing)
 .debug_str     0x000000000000cfed       0x32 _build/build-bm68rgb_custom_rev1_THusb/gcc_startup_nrf52840.o
                                         0x56 (size before relaxing)

Cross Reference Table

Symbol                                            File
BusFault_Handler                                  _build/build-bm68rgb_custom_rev1_THusb/gcc_startup_nrf52840.o
CCM_AAR_IRQHandler                                _build/build-bm68rgb_custom_rev1_THusb/gcc_startup_nrf52840.o
COMP_LPCOMP_IRQHandler                            _build/build-bm68rgb_custom_rev1_THusb/gcc_startup_nrf52840.o
CRYPTOCELL_IRQHandler                             _build/build-bm68rgb_custom_rev1_THusb/gcc_startup_nrf52840.o
C_SVC_Handler                                     _build/build-bm68rgb_custom_rev1_THusb/dfu_ble_svc.o
DebugMon_Handler                                  _build/build-bm68rgb_custom_rev1_THusb/gcc_startup_nrf52840.o
Default_Handler                                   _build/build-bm68rgb_custom_rev1_THusb/gcc_startup_nrf52840.o
ECB_IRQHandler                                    _build/build-bm68rgb_custom_rev1_THusb/gcc_startup_nrf52840.o
FPU_IRQHandler                                    _build/build-bm68rgb_custom_rev1_THusb/gcc_startup_nrf52840.o
GPIOTE_IRQHandler                                 _build/build-bm68rgb_custom_rev1_THusb/gcc_startup_nrf52840.o
HardFault_Handler                                 _build/build-bm68rgb_custom_rev1_THusb/gcc_startup_nrf52840.o
I2S_IRQHandler                                    _build/build-bm68rgb_custom_rev1_THusb/gcc_startup_nrf52840.o
MWU_IRQHandler                                    _build/build-bm68rgb_custom_rev1_THusb/gcc_startup_nrf52840.o
MemoryManagement_Handler                          _build/build-bm68rgb_custom_rev1_THusb/gcc_startup_nrf52840.o
NFCT_IRQHandler                                   _build/build-bm68rgb_custom_rev1_THusb/gcc_startup_nrf52840.o
NMI_Handler                                       _build/build-bm68rgb_custom_rev1_THusb/gcc_startup_nrf52840.o
PDM_IRQHandler                                    _build/build-bm68rgb_custom_rev1_THusb/gcc_startup_nrf52840.o
POWER_CLOCK_IRQHandler                            _build/build-bm68rgb_custom_rev1_THusb/nrfx_power.o
PWM0_IRQHandler                                   _build/build-bm68rgb_custom_rev1_THusb/gcc_startup_nrf52840.o
PWM1_IRQHandler                                   _build/build-bm68rgb_custom_rev1_THusb/gcc_startup_nrf52840.o
PWM2_IRQHandler                                   _build/build-bm68rgb_custom_rev1_THusb/gcc_startup_nrf52840.o
PWM3_IRQHandler                                   _build/build-bm68rgb_custom_rev1_THusb/gcc_startup_nrf52840.o
PendSV_Handler                                    _build/build-bm68rgb_custom_rev1_THusb/gcc_startup_nrf52840.o
QDEC_IRQHandler                                   _build/build-bm68rgb_custom_rev1_THusb/gcc_startup_nrf52840.o
QSPI_IRQHandler                                   _build/build-bm68rgb_custom_rev1_THusb/gcc_startup_nrf52840.o
RADIO_IRQHandler                                  _build/build-bm68rgb_custom_rev1_THusb/gcc_startup_nrf52840.o
RNG_IRQHandler                                    _build/build-bm68rgb_custom_rev1_THusb/gcc_startup_nrf52840.o
RTC0_IRQHandler                                   _build/build-bm68rgb_custom_rev1_THusb/gcc_startup_nrf52840.o
RTC1_IRQHandler                                   _build/build-bm68rgb_custom_rev1_THusb/app_timer.o
RTC2_IRQHandler                                   _build/build-bm68rgb_custom_rev1_THusb/gcc_startup_nrf52840.o
Reset_Handler                                     _build/build-bm68rgb_custom_rev1_THusb/gcc_startup_nrf52840.o
SAADC_IRQHandler                                  _build/build-bm68rgb_custom_rev1_THusb/gcc_startup_nrf52840.o
SPIM0_SPIS0_TWIM0_TWIS0_SPI0_TWI0_IRQHandler      _build/build-bm68rgb_custom_rev1_THusb/gcc_startup_nrf52840.o
SPIM1_SPIS1_TWIM1_TWIS1_SPI1_TWI1_IRQHandler      _build/build-bm68rgb_custom_rev1_THusb/gcc_startup_nrf52840.o
SPIM2_SPIS2_SPI2_IRQHandler                       _build/build-bm68rgb_custom_rev1_THusb/gcc_startup_nrf52840.o
SPIM3_IRQHandler                                  _build/build-bm68rgb_custom_rev1_THusb/gcc_startup_nrf52840.o
SVC_Handler                                       _build/build-bm68rgb_custom_rev1_THusb/dfu_ble_svc.o
SWI0_EGU0_IRQHandler                              _build/build-bm68rgb_custom_rev1_THusb/app_timer.o
SWI1_EGU1_IRQHandler                              _build/build-bm68rgb_custom_rev1_THusb/gcc_startup_nrf52840.o
SWI2_EGU2_IRQHandler                              _build/build-bm68rgb_custom_rev1_THusb/main.o
SWI3_EGU3_IRQHandler                              _build/build-bm68rgb_custom_rev1_THusb/gcc_startup_nrf52840.o
SWI4_EGU4_IRQHandler                              _build/build-bm68rgb_custom_rev1_THusb/gcc_startup_nrf52840.o
SWI5_EGU5_IRQHandler                              _build/build-bm68rgb_custom_rev1_THusb/gcc_startup_nrf52840.o
SysTick_Handler                                   _build/build-bm68rgb_custom_rev1_THusb/boards.o
SystemCoreClock                                   _build/build-bm68rgb_custom_rev1_THusb/system_nrf52840.o
                                                  _build/build-bm68rgb_custom_rev1_THusb/app_timer.o
                                                  _build/build-bm68rgb_custom_rev1_THusb/boards.o
SystemCoreClockUpdate                             _build/build-bm68rgb_custom_rev1_THusb/system_nrf52840.o
SystemInit                                        _build/build-bm68rgb_custom_rev1_THusb/system_nrf52840.o
                                                  _build/build-bm68rgb_custom_rev1_THusb/gcc_startup_nrf52840.o
TEMP_IRQHandler                                   _build/build-bm68rgb_custom_rev1_THusb/gcc_startup_nrf52840.o
TIMER0_IRQHandler                                 _build/build-bm68rgb_custom_rev1_THusb/gcc_startup_nrf52840.o
TIMER1_IRQHandler                                 _build/build-bm68rgb_custom_rev1_THusb/gcc_startup_nrf52840.o
TIMER2_IRQHandler                                 _build/build-bm68rgb_custom_rev1_THusb/gcc_startup_nrf52840.o
TIMER3_IRQHandler                                 _build/build-bm68rgb_custom_rev1_THusb/gcc_startup_nrf52840.o
TIMER4_IRQHandler                                 _build/build-bm68rgb_custom_rev1_THusb/gcc_startup_nrf52840.o
UARTE0_UART0_IRQHandler                           _build/build-bm68rgb_custom_rev1_THusb/gcc_startup_nrf52840.o
UARTE1_IRQHandler                                 _build/build-bm68rgb_custom_rev1_THusb/gcc_startup_nrf52840.o
USBD_IRQHandler                                   _build/build-bm68rgb_custom_rev1_THusb/usb.o
UsageFault_Handler                                _build/build-bm68rgb_custom_rev1_THusb/gcc_startup_nrf52840.o
WDT_IRQHandler                                    _build/build-bm68rgb_custom_rev1_THusb/gcc_startup_nrf52840.o
__HeapBase                                        _build/build-bm68rgb_custom_rev1_THusb/gcc_startup_nrf52840.o
__HeapLimit                                       _build/build-bm68rgb_custom_rev1_THusb/gcc_startup_nrf52840.o
__StackLimit                                      _build/build-bm68rgb_custom_rev1_THusb/gcc_startup_nrf52840.o
__StackTop                                        _build/build-bm68rgb_custom_rev1_THusb/gcc_startup_nrf52840.o
__aeabi_idiv0                                     /usr/share/gcc-arm-none-eabi-10-2020-q4-major/bin/../lib/gcc/arm-none-eabi/10.2.1/thumb/v7e-m+fp/hard/libgcc.a(_dvmd_tls.o)
__aeabi_ldiv0                                     /usr/share/gcc-arm-none-eabi-10-2020-q4-major/bin/../lib/gcc/arm-none-eabi/10.2.1/thumb/v7e-m+fp/hard/libgcc.a(_dvmd_tls.o)
                                                  /usr/share/gcc-arm-none-eabi-10-2020-q4-major/bin/../lib/gcc/arm-none-eabi/10.2.1/thumb/v7e-m+fp/hard/libgcc.a(_aeabi_uldivmod.o)
                                                  /usr/share/gcc-arm-none-eabi-10-2020-q4-major/bin/../lib/gcc/arm-none-eabi/10.2.1/thumb/v7e-m+fp/hard/libgcc.a(_aeabi_ldivmod.o)
__aeabi_ldivmod                                   /usr/share/gcc-arm-none-eabi-10-2020-q4-major/bin/../lib/gcc/arm-none-eabi/10.2.1/thumb/v7e-m+fp/hard/libgcc.a(_aeabi_ldivmod.o)
                                                  _build/build-bm68rgb_custom_rev1_THusb/bootloader.o
__aeabi_uldivmod                                  /usr/share/gcc-arm-none-eabi-10-2020-q4-major/bin/../lib/gcc/arm-none-eabi/10.2.1/thumb/v7e-m+fp/hard/libgcc.a(_aeabi_uldivmod.o)
                                                  _build/build-bm68rgb_custom_rev1_THusb/bootloader.o
__atexit_recursive_mutex                          /usr/share/gcc-arm-none-eabi-10-2020-q4-major/bin/../lib/gcc/arm-none-eabi/10.2.1/../../../../arm-none-eabi/lib/thumb/v7e-m+fp/hard/libc.a(lib_a-__call_atexit.o)
                                                  /usr/share/gcc-arm-none-eabi-10-2020-q4-major/bin/../lib/gcc/arm-none-eabi/10.2.1/../../../../arm-none-eabi/lib/thumb/v7e-m+fp/hard/libc.a(lib_a-__atexit.o)
__bss_end__                                       /usr/share/gcc-arm-none-eabi-10-2020-q4-major/bin/../lib/gcc/arm-none-eabi/10.2.1/../../../../arm-none-eabi/lib/thumb/v7e-m+fp/hard/crt0.o
__bss_start__                                     _build/build-bm68rgb_custom_rev1_THusb/gcc_startup_nrf52840.o
                                                  /usr/share/gcc-arm-none-eabi-10-2020-q4-major/bin/../lib/gcc/arm-none-eabi/10.2.1/../../../../arm-none-eabi/lib/thumb/v7e-m+fp/hard/crt0.o
__call_exitprocs                                  /usr/share/gcc-arm-none-eabi-10-2020-q4-major/bin/../lib/gcc/arm-none-eabi/10.2.1/../../../../arm-none-eabi/lib/thumb/v7e-m+fp/hard/libc.a(lib_a-__call_atexit.o)
                                                  /usr/share/gcc-arm-none-eabi-10-2020-q4-major/bin/../lib/gcc/arm-none-eabi/10.2.1/../../../../arm-none-eabi/lib/thumb/v7e-m+fp/hard/libc.a(lib_a-exit.o)
__data_start__                                    _build/build-bm68rgb_custom_rev1_THusb/gcc_startup_nrf52840.o
                                                  _build/build-bm68rgb_custom_rev1_THusb/main.o
__deregister_frame_info                           /usr/share/gcc-arm-none-eabi-10-2020-q4-major/bin/../lib/gcc/arm-none-eabi/10.2.1/thumb/v7e-m+fp/hard/crtbegin.o
__dso_handle                                      /usr/share/gcc-arm-none-eabi-10-2020-q4-major/bin/../lib/gcc/arm-none-eabi/10.2.1/thumb/v7e-m+fp/hard/crtbegin.o
__etext                                           _build/build-bm68rgb_custom_rev1_THusb/gcc_startup_nrf52840.o
__fini_array_end                                  /usr/share/gcc-arm-none-eabi-10-2020-q4-major/bin/../lib/gcc/arm-none-eabi/10.2.1/../../../../arm-none-eabi/lib/thumb/v7e-m+fp/hard/libc.a(lib_a-fini.o)
__fini_array_start                                /usr/share/gcc-arm-none-eabi-10-2020-q4-major/bin/../lib/gcc/arm-none-eabi/10.2.1/../../../../arm-none-eabi/lib/thumb/v7e-m+fp/hard/libc.a(lib_a-fini.o)
__init_array_end                                  /usr/share/gcc-arm-none-eabi-10-2020-q4-major/bin/../lib/gcc/arm-none-eabi/10.2.1/../../../../arm-none-eabi/lib/thumb/v7e-m+fp/hard/libc.a(lib_a-init.o)
__init_array_start                                /usr/share/gcc-arm-none-eabi-10-2020-q4-major/bin/../lib/gcc/arm-none-eabi/10.2.1/../../../../arm-none-eabi/lib/thumb/v7e-m+fp/hard/libc.a(lib_a-init.o)
__isr_vector                                      _build/build-bm68rgb_custom_rev1_THusb/gcc_startup_nrf52840.o
__libc_fini                                       /usr/share/gcc-arm-none-eabi-10-2020-q4-major/bin/../lib/gcc/arm-none-eabi/10.2.1/../../../../arm-none-eabi/lib/thumb/v7e-m+fp/hard/libc.a(lib_a-__call_atexit.o)
__libc_fini_array                                 /usr/share/gcc-arm-none-eabi-10-2020-q4-major/bin/../lib/gcc/arm-none-eabi/10.2.1/../../../../arm-none-eabi/lib/thumb/v7e-m+fp/hard/libc.a(lib_a-fini.o)
                                                  /usr/share/gcc-arm-none-eabi-10-2020-q4-major/bin/../lib/gcc/arm-none-eabi/10.2.1/../../../../arm-none-eabi/lib/thumb/v7e-m+fp/hard/libc.a(lib_a-__call_atexit.o)
                                                  /usr/share/gcc-arm-none-eabi-10-2020-q4-major/bin/../lib/gcc/arm-none-eabi/10.2.1/../../../../arm-none-eabi/lib/thumb/v7e-m+fp/hard/crt0.o
__libc_init_array                                 /usr/share/gcc-arm-none-eabi-10-2020-q4-major/bin/../lib/gcc/arm-none-eabi/10.2.1/../../../../arm-none-eabi/lib/thumb/v7e-m+fp/hard/libc.a(lib_a-init.o)
                                                  /usr/share/gcc-arm-none-eabi-10-2020-q4-major/bin/../lib/gcc/arm-none-eabi/10.2.1/../../../../arm-none-eabi/lib/thumb/v7e-m+fp/hard/crt0.o
__lock___arc4random_mutex                         /usr/share/gcc-arm-none-eabi-10-2020-q4-major/bin/../lib/gcc/arm-none-eabi/10.2.1/../../../../arm-none-eabi/lib/thumb/v7e-m+fp/hard/libc.a(lib_a-lock.o)
__lock___at_quick_exit_mutex                      /usr/share/gcc-arm-none-eabi-10-2020-q4-major/bin/../lib/gcc/arm-none-eabi/10.2.1/../../../../arm-none-eabi/lib/thumb/v7e-m+fp/hard/libc.a(lib_a-lock.o)
__lock___atexit_recursive_mutex                   /usr/share/gcc-arm-none-eabi-10-2020-q4-major/bin/../lib/gcc/arm-none-eabi/10.2.1/../../../../arm-none-eabi/lib/thumb/v7e-m+fp/hard/libc.a(lib_a-lock.o)
                                                  /usr/share/gcc-arm-none-eabi-10-2020-q4-major/bin/../lib/gcc/arm-none-eabi/10.2.1/../../../../arm-none-eabi/lib/thumb/v7e-m+fp/hard/libc.a(lib_a-__call_atexit.o)
__lock___dd_hash_mutex                            /usr/share/gcc-arm-none-eabi-10-2020-q4-major/bin/../lib/gcc/arm-none-eabi/10.2.1/../../../../arm-none-eabi/lib/thumb/v7e-m+fp/hard/libc.a(lib_a-lock.o)
__lock___env_recursive_mutex                      /usr/share/gcc-arm-none-eabi-10-2020-q4-major/bin/../lib/gcc/arm-none-eabi/10.2.1/../../../../arm-none-eabi/lib/thumb/v7e-m+fp/hard/libc.a(lib_a-lock.o)
__lock___malloc_recursive_mutex                   /usr/share/gcc-arm-none-eabi-10-2020-q4-major/bin/../lib/gcc/arm-none-eabi/10.2.1/../../../../arm-none-eabi/lib/thumb/v7e-m+fp/hard/libc.a(lib_a-lock.o)
__lock___sfp_recursive_mutex                      /usr/share/gcc-arm-none-eabi-10-2020-q4-major/bin/../lib/gcc/arm-none-eabi/10.2.1/../../../../arm-none-eabi/lib/thumb/v7e-m+fp/hard/libc.a(lib_a-lock.o)
__lock___sinit_recursive_mutex                    /usr/share/gcc-arm-none-eabi-10-2020-q4-major/bin/../lib/gcc/arm-none-eabi/10.2.1/../../../../arm-none-eabi/lib/thumb/v7e-m+fp/hard/libc.a(lib_a-lock.o)
__lock___tz_mutex                                 /usr/share/gcc-arm-none-eabi-10-2020-q4-major/bin/../lib/gcc/arm-none-eabi/10.2.1/../../../../arm-none-eabi/lib/thumb/v7e-m+fp/hard/libc.a(lib_a-lock.o)
__preinit_array_end                               /usr/share/gcc-arm-none-eabi-10-2020-q4-major/bin/../lib/gcc/arm-none-eabi/10.2.1/../../../../arm-none-eabi/lib/thumb/v7e-m+fp/hard/libc.a(lib_a-init.o)
__preinit_array_start                             /usr/share/gcc-arm-none-eabi-10-2020-q4-major/bin/../lib/gcc/arm-none-eabi/10.2.1/../../../../arm-none-eabi/lib/thumb/v7e-m+fp/hard/libc.a(lib_a-init.o)
__register_exitproc                               /usr/share/gcc-arm-none-eabi-10-2020-q4-major/bin/../lib/gcc/arm-none-eabi/10.2.1/../../../../arm-none-eabi/lib/thumb/v7e-m+fp/hard/libc.a(lib_a-__atexit.o)
                                                  /usr/share/gcc-arm-none-eabi-10-2020-q4-major/bin/../lib/gcc/arm-none-eabi/10.2.1/../../../../arm-none-eabi/lib/thumb/v7e-m+fp/hard/libc.a(lib_a-atexit.o)
__register_frame_info                             /usr/share/gcc-arm-none-eabi-10-2020-q4-major/bin/../lib/gcc/arm-none-eabi/10.2.1/thumb/v7e-m+fp/hard/crtbegin.o
__retarget_lock_acquire                           /usr/share/gcc-arm-none-eabi-10-2020-q4-major/bin/../lib/gcc/arm-none-eabi/10.2.1/../../../../arm-none-eabi/lib/thumb/v7e-m+fp/hard/libc.a(lib_a-lock.o)
__retarget_lock_acquire_recursive                 /usr/share/gcc-arm-none-eabi-10-2020-q4-major/bin/../lib/gcc/arm-none-eabi/10.2.1/../../../../arm-none-eabi/lib/thumb/v7e-m+fp/hard/libc.a(lib_a-lock.o)
                                                  /usr/share/gcc-arm-none-eabi-10-2020-q4-major/bin/../lib/gcc/arm-none-eabi/10.2.1/../../../../arm-none-eabi/lib/thumb/v7e-m+fp/hard/libc.a(lib_a-__atexit.o)
                                                  /usr/share/gcc-arm-none-eabi-10-2020-q4-major/bin/../lib/gcc/arm-none-eabi/10.2.1/../../../../arm-none-eabi/lib/thumb/v7e-m+fp/hard/libc.a(lib_a-__call_atexit.o)
__retarget_lock_close                             /usr/share/gcc-arm-none-eabi-10-2020-q4-major/bin/../lib/gcc/arm-none-eabi/10.2.1/../../../../arm-none-eabi/lib/thumb/v7e-m+fp/hard/libc.a(lib_a-lock.o)
__retarget_lock_close_recursive                   /usr/share/gcc-arm-none-eabi-10-2020-q4-major/bin/../lib/gcc/arm-none-eabi/10.2.1/../../../../arm-none-eabi/lib/thumb/v7e-m+fp/hard/libc.a(lib_a-lock.o)
__retarget_lock_init                              /usr/share/gcc-arm-none-eabi-10-2020-q4-major/bin/../lib/gcc/arm-none-eabi/10.2.1/../../../../arm-none-eabi/lib/thumb/v7e-m+fp/hard/libc.a(lib_a-lock.o)
__retarget_lock_init_recursive                    /usr/share/gcc-arm-none-eabi-10-2020-q4-major/bin/../lib/gcc/arm-none-eabi/10.2.1/../../../../arm-none-eabi/lib/thumb/v7e-m+fp/hard/libc.a(lib_a-lock.o)
__retarget_lock_release                           /usr/share/gcc-arm-none-eabi-10-2020-q4-major/bin/../lib/gcc/arm-none-eabi/10.2.1/../../../../arm-none-eabi/lib/thumb/v7e-m+fp/hard/libc.a(lib_a-lock.o)
__retarget_lock_release_recursive                 /usr/share/gcc-arm-none-eabi-10-2020-q4-major/bin/../lib/gcc/arm-none-eabi/10.2.1/../../../../arm-none-eabi/lib/thumb/v7e-m+fp/hard/libc.a(lib_a-lock.o)
                                                  /usr/share/gcc-arm-none-eabi-10-2020-q4-major/bin/../lib/gcc/arm-none-eabi/10.2.1/../../../../arm-none-eabi/lib/thumb/v7e-m+fp/hard/libc.a(lib_a-__atexit.o)
                                                  /usr/share/gcc-arm-none-eabi-10-2020-q4-major/bin/../lib/gcc/arm-none-eabi/10.2.1/../../../../arm-none-eabi/lib/thumb/v7e-m+fp/hard/libc.a(lib_a-__call_atexit.o)
__retarget_lock_try_acquire                       /usr/share/gcc-arm-none-eabi-10-2020-q4-major/bin/../lib/gcc/arm-none-eabi/10.2.1/../../../../arm-none-eabi/lib/thumb/v7e-m+fp/hard/libc.a(lib_a-lock.o)
__retarget_lock_try_acquire_recursive             /usr/share/gcc-arm-none-eabi-10-2020-q4-major/bin/../lib/gcc/arm-none-eabi/10.2.1/../../../../arm-none-eabi/lib/thumb/v7e-m+fp/hard/libc.a(lib_a-lock.o)
__stack                                           /usr/share/gcc-arm-none-eabi-10-2020-q4-major/bin/../lib/gcc/arm-none-eabi/10.2.1/../../../../arm-none-eabi/lib/thumb/v7e-m+fp/hard/crt0.o
__udivmoddi4                                      /usr/share/gcc-arm-none-eabi-10-2020-q4-major/bin/../lib/gcc/arm-none-eabi/10.2.1/thumb/v7e-m+fp/hard/libgcc.a(_udivmoddi4.o)
                                                  /usr/share/gcc-arm-none-eabi-10-2020-q4-major/bin/../lib/gcc/arm-none-eabi/10.2.1/thumb/v7e-m+fp/hard/libgcc.a(_aeabi_uldivmod.o)
                                                  /usr/share/gcc-arm-none-eabi-10-2020-q4-major/bin/../lib/gcc/arm-none-eabi/10.2.1/thumb/v7e-m+fp/hard/libgcc.a(_aeabi_ldivmod.o)
__utoa                                            /usr/share/gcc-arm-none-eabi-10-2020-q4-major/bin/../lib/gcc/arm-none-eabi/10.2.1/../../../../arm-none-eabi/lib/thumb/v7e-m+fp/hard/libc_nano.a(lib_a-utoa.o)
_exit                                             /usr/share/gcc-arm-none-eabi-10-2020-q4-major/bin/../lib/gcc/arm-none-eabi/10.2.1/../../../../arm-none-eabi/lib/thumb/v7e-m+fp/hard/libnosys.a(_exit.o)
                                                  /usr/share/gcc-arm-none-eabi-10-2020-q4-major/bin/../lib/gcc/arm-none-eabi/10.2.1/../../../../arm-none-eabi/lib/thumb/v7e-m+fp/hard/libc.a(lib_a-exit.o)
_fini                                             /usr/share/gcc-arm-none-eabi-10-2020-q4-major/bin/../lib/gcc/arm-none-eabi/10.2.1/thumb/v7e-m+fp/hard/crti.o
                                                  /usr/share/gcc-arm-none-eabi-10-2020-q4-major/bin/../lib/gcc/arm-none-eabi/10.2.1/../../../../arm-none-eabi/lib/thumb/v7e-m+fp/hard/libc.a(lib_a-fini.o)
_global_impure_ptr                                /usr/share/gcc-arm-none-eabi-10-2020-q4-major/bin/../lib/gcc/arm-none-eabi/10.2.1/../../../../arm-none-eabi/lib/thumb/v7e-m+fp/hard/libc.a(lib_a-impure.o)
                                                  /usr/share/gcc-arm-none-eabi-10-2020-q4-major/bin/../lib/gcc/arm-none-eabi/10.2.1/../../../../arm-none-eabi/lib/thumb/v7e-m+fp/hard/libc.a(lib_a-__atexit.o)
                                                  /usr/share/gcc-arm-none-eabi-10-2020-q4-major/bin/../lib/gcc/arm-none-eabi/10.2.1/../../../../arm-none-eabi/lib/thumb/v7e-m+fp/hard/libc.a(lib_a-__call_atexit.o)
                                                  /usr/share/gcc-arm-none-eabi-10-2020-q4-major/bin/../lib/gcc/arm-none-eabi/10.2.1/../../../../arm-none-eabi/lib/thumb/v7e-m+fp/hard/libc.a(lib_a-exit.o)
_impure_ptr                                       /usr/share/gcc-arm-none-eabi-10-2020-q4-major/bin/../lib/gcc/arm-none-eabi/10.2.1/../../../../arm-none-eabi/lib/thumb/v7e-m+fp/hard/libc.a(lib_a-impure.o)
_init                                             /usr/share/gcc-arm-none-eabi-10-2020-q4-major/bin/../lib/gcc/arm-none-eabi/10.2.1/thumb/v7e-m+fp/hard/crti.o
                                                  /usr/share/gcc-arm-none-eabi-10-2020-q4-major/bin/../lib/gcc/arm-none-eabi/10.2.1/../../../../arm-none-eabi/lib/thumb/v7e-m+fp/hard/libc.a(lib_a-init.o)
_mainCRTStartup                                   /usr/share/gcc-arm-none-eabi-10-2020-q4-major/bin/../lib/gcc/arm-none-eabi/10.2.1/../../../../arm-none-eabi/lib/thumb/v7e-m+fp/hard/crt0.o
_ota_connected                                    _build/build-bm68rgb_custom_rev1_THusb/main.o
_ota_dfu                                          _build/build-bm68rgb_custom_rev1_THusb/main.o
_sd_inited                                        _build/build-bm68rgb_custom_rev1_THusb/main.o
_stack_init                                       /usr/share/gcc-arm-none-eabi-10-2020-q4-major/bin/../lib/gcc/arm-none-eabi/10.2.1/../../../../arm-none-eabi/lib/thumb/v7e-m+fp/hard/crt0.o
_start                                            /usr/share/gcc-arm-none-eabi-10-2020-q4-major/bin/../lib/gcc/arm-none-eabi/10.2.1/../../../../arm-none-eabi/lib/thumb/v7e-m+fp/hard/crt0.o
                                                  _build/build-bm68rgb_custom_rev1_THusb/gcc_startup_nrf52840.o
_usbd_qdef                                        _build/build-bm68rgb_custom_rev1_THusb/usbd.o
_usbd_qdef_buf                                    _build/build-bm68rgb_custom_rev1_THusb/usbd.o
app_error_fault_handler                           _build/build-bm68rgb_custom_rev1_THusb/main.o
                                                  _build/build-bm68rgb_custom_rev1_THusb/nrf_assert.o
                                                  _build/build-bm68rgb_custom_rev1_THusb/app_error.o
app_error_handler                                 _build/build-bm68rgb_custom_rev1_THusb/app_error.o
app_error_handler_bare                            _build/build-bm68rgb_custom_rev1_THusb/app_error.o
                                                  _build/build-bm68rgb_custom_rev1_THusb/hci_transport.o
                                                  _build/build-bm68rgb_custom_rev1_THusb/app_timer.o
                                                  _build/build-bm68rgb_custom_rev1_THusb/ble_dis.o
                                                  _build/build-bm68rgb_custom_rev1_THusb/dfu_single_bank.o
                                                  _build/build-bm68rgb_custom_rev1_THusb/dfu_transport_ble.o
                                                  _build/build-bm68rgb_custom_rev1_THusb/dfu_transport_serial.o
                                                  _build/build-bm68rgb_custom_rev1_THusb/bootloader.o
                                                  _build/build-bm68rgb_custom_rev1_THusb/boards.o
app_error_save_and_stop                           _build/build-bm68rgb_custom_rev1_THusb/app_error.o
app_sched_event_put                               _build/build-bm68rgb_custom_rev1_THusb/app_scheduler.o
                                                  _build/build-bm68rgb_custom_rev1_THusb/app_timer.o
                                                  _build/build-bm68rgb_custom_rev1_THusb/dfu_transport_serial.o
                                                  _build/build-bm68rgb_custom_rev1_THusb/main.o
app_sched_execute                                 _build/build-bm68rgb_custom_rev1_THusb/app_scheduler.o
                                                  _build/build-bm68rgb_custom_rev1_THusb/bootloader.o
app_sched_init                                    _build/build-bm68rgb_custom_rev1_THusb/app_scheduler.o
                                                  _build/build-bm68rgb_custom_rev1_THusb/boards.o
app_sched_queue_space_get                         _build/build-bm68rgb_custom_rev1_THusb/app_scheduler.o
app_timer_cnt_diff_compute                        _build/build-bm68rgb_custom_rev1_THusb/app_timer.o
app_timer_cnt_get                                 _build/build-bm68rgb_custom_rev1_THusb/app_timer.o
app_timer_create                                  _build/build-bm68rgb_custom_rev1_THusb/app_timer.o
                                                  _build/build-bm68rgb_custom_rev1_THusb/hci_transport.o
                                                  _build/build-bm68rgb_custom_rev1_THusb/bootloader.o
app_timer_init                                    _build/build-bm68rgb_custom_rev1_THusb/app_timer.o
                                                  _build/build-bm68rgb_custom_rev1_THusb/boards.o
app_timer_pause                                   _build/build-bm68rgb_custom_rev1_THusb/app_timer.o
app_timer_resume                                  _build/build-bm68rgb_custom_rev1_THusb/app_timer.o
app_timer_start                                   _build/build-bm68rgb_custom_rev1_THusb/app_timer.o
                                                  _build/build-bm68rgb_custom_rev1_THusb/hci_transport.o
                                                  _build/build-bm68rgb_custom_rev1_THusb/bootloader.o
app_timer_stop                                    _build/build-bm68rgb_custom_rev1_THusb/app_timer.o
                                                  _build/build-bm68rgb_custom_rev1_THusb/hci_transport.o
app_timer_stop_all                                _build/build-bm68rgb_custom_rev1_THusb/app_timer.o
app_util_critical_region_enter                    _build/build-bm68rgb_custom_rev1_THusb/app_util_platform.o
                                                  _build/build-bm68rgb_custom_rev1_THusb/app_scheduler.o
                                                  _build/build-bm68rgb_custom_rev1_THusb/app_timer.o
app_util_critical_region_exit                     _build/build-bm68rgb_custom_rev1_THusb/app_util_platform.o
                                                  _build/build-bm68rgb_custom_rev1_THusb/app_scheduler.o
                                                  _build/build-bm68rgb_custom_rev1_THusb/app_timer.o
app_util_disable_irq                              _build/build-bm68rgb_custom_rev1_THusb/app_util_platform.o
app_util_enable_irq                               _build/build-bm68rgb_custom_rev1_THusb/app_util_platform.o
assert_nrf_callback                               _build/build-bm68rgb_custom_rev1_THusb/main.o
atexit                                            /usr/share/gcc-arm-none-eabi-10-2020-q4-major/bin/../lib/gcc/arm-none-eabi/10.2.1/../../../../arm-none-eabi/lib/thumb/v7e-m+fp/hard/libc.a(lib_a-atexit.o)
                                                  /usr/share/gcc-arm-none-eabi-10-2020-q4-major/bin/../lib/gcc/arm-none-eabi/10.2.1/../../../../arm-none-eabi/lib/thumb/v7e-m+fp/hard/libc.a(lib_a-__call_atexit.o)
                                                  /usr/share/gcc-arm-none-eabi-10-2020-q4-major/bin/../lib/gcc/arm-none-eabi/10.2.1/../../../../arm-none-eabi/lib/thumb/v7e-m+fp/hard/crt0.o
ble_dfu_bytes_rcvd_report                         _build/build-bm68rgb_custom_rev1_THusb/ble_dfu.o
                                                  _build/build-bm68rgb_custom_rev1_THusb/dfu_transport_ble.o
ble_dfu_init                                      _build/build-bm68rgb_custom_rev1_THusb/ble_dfu.o
                                                  _build/build-bm68rgb_custom_rev1_THusb/dfu_transport_ble.o
ble_dfu_on_ble_evt                                _build/build-bm68rgb_custom_rev1_THusb/ble_dfu.o
                                                  _build/build-bm68rgb_custom_rev1_THusb/dfu_transport_ble.o
ble_dfu_pkts_rcpt_notify                          _build/build-bm68rgb_custom_rev1_THusb/ble_dfu.o
                                                  _build/build-bm68rgb_custom_rev1_THusb/dfu_transport_ble.o
ble_dfu_response_send                             _build/build-bm68rgb_custom_rev1_THusb/ble_dfu.o
                                                  _build/build-bm68rgb_custom_rev1_THusb/dfu_transport_ble.o
ble_dis_init                                      _build/build-bm68rgb_custom_rev1_THusb/ble_dis.o
                                                  _build/build-bm68rgb_custom_rev1_THusb/dfu_transport_ble.o
ble_evt_dispatch                                  _build/build-bm68rgb_custom_rev1_THusb/dfu_transport_ble.o
                                                  _build/build-bm68rgb_custom_rev1_THusb/main.o
board_init                                        _build/build-bm68rgb_custom_rev1_THusb/boards.o
                                                  _build/build-bm68rgb_custom_rev1_THusb/main.o
board_teardown                                    _build/build-bm68rgb_custom_rev1_THusb/boards.o
                                                  _build/build-bm68rgb_custom_rev1_THusb/main.o
bootloaderConfig                                  _build/build-bm68rgb_custom_rev1_THusb/pinconfig.o
                                                  _build/build-bm68rgb_custom_rev1_THusb/ghostfat.o
bootloader_app_is_valid                           _build/build-bm68rgb_custom_rev1_THusb/bootloader.o
                                                  _build/build-bm68rgb_custom_rev1_THusb/main.o
bootloader_app_start                              _build/build-bm68rgb_custom_rev1_THusb/bootloader.o
                                                  _build/build-bm68rgb_custom_rev1_THusb/main.o
bootloader_dfu_sd_in_progress                     _build/build-bm68rgb_custom_rev1_THusb/bootloader.o
                                                  _build/build-bm68rgb_custom_rev1_THusb/main.o
bootloader_dfu_sd_update_continue                 _build/build-bm68rgb_custom_rev1_THusb/bootloader.o
                                                  _build/build-bm68rgb_custom_rev1_THusb/main.o
bootloader_dfu_sd_update_finalize                 _build/build-bm68rgb_custom_rev1_THusb/bootloader.o
                                                  _build/build-bm68rgb_custom_rev1_THusb/main.o
bootloader_dfu_start                              _build/build-bm68rgb_custom_rev1_THusb/bootloader.o
                                                  _build/build-bm68rgb_custom_rev1_THusb/main.o
bootloader_dfu_update_process                     _build/build-bm68rgb_custom_rev1_THusb/bootloader.o
                                                  _build/build-bm68rgb_custom_rev1_THusb/msc_uf2.o
                                                  _build/build-bm68rgb_custom_rev1_THusb/dfu_single_bank.o
                                                  _build/build-bm68rgb_custom_rev1_THusb/dfu_transport_ble.o
bootloader_init                                   _build/build-bm68rgb_custom_rev1_THusb/bootloader.o
                                                  _build/build-bm68rgb_custom_rev1_THusb/main.o
bootloader_mbr_addrs_populate                     _build/build-bm68rgb_custom_rev1_THusb/bootloader_settings.o
bootloader_settings_get                           _build/build-bm68rgb_custom_rev1_THusb/bootloader.o
                                                  _build/build-bm68rgb_custom_rev1_THusb/dfu_single_bank.o
bootloader_util_app_start                         _build/build-bm68rgb_custom_rev1_THusb/bootloader_util.o
                                                  _build/build-bm68rgb_custom_rev1_THusb/bootloader.o
bootloader_util_settings_get                      _build/build-bm68rgb_custom_rev1_THusb/bootloader_settings.o
                                                  _build/build-bm68rgb_custom_rev1_THusb/bootloader.o
bus_reset                                         _build/build-bm68rgb_custom_rev1_THusb/dcd_nrf5x.o
button_init                                       _build/build-bm68rgb_custom_rev1_THusb/boards.o
button_pressed                                    _build/build-bm68rgb_custom_rev1_THusb/boards.o
                                                  _build/build-bm68rgb_custom_rev1_THusb/main.o
cdcd_control_xfer_cb                              _build/build-bm68rgb_custom_rev1_THusb/cdc_device.o
                                                  _build/build-bm68rgb_custom_rev1_THusb/usbd.o
cdcd_init                                         _build/build-bm68rgb_custom_rev1_THusb/cdc_device.o
                                                  _build/build-bm68rgb_custom_rev1_THusb/usbd.o
cdcd_open                                         _build/build-bm68rgb_custom_rev1_THusb/cdc_device.o
                                                  _build/build-bm68rgb_custom_rev1_THusb/usbd.o
cdcd_reset                                        _build/build-bm68rgb_custom_rev1_THusb/cdc_device.o
                                                  _build/build-bm68rgb_custom_rev1_THusb/usbd.o
cdcd_xfer_cb                                      _build/build-bm68rgb_custom_rev1_THusb/cdc_device.o
                                                  _build/build-bm68rgb_custom_rev1_THusb/usbd.o
crc16_compute                                     _build/build-bm68rgb_custom_rev1_THusb/crc16.o
                                                  _build/build-bm68rgb_custom_rev1_THusb/hci_transport.o
                                                  _build/build-bm68rgb_custom_rev1_THusb/bootloader.o
                                                  _build/build-bm68rgb_custom_rev1_THusb/dfu_init.o
                                                  _build/build-bm68rgb_custom_rev1_THusb/dfu_ble_svc.o
current_int_priority_get                          _build/build-bm68rgb_custom_rev1_THusb/app_util_platform.o
dbl_reset_mem                                     _build/build-bm68rgb_custom_rev1_THusb/main.o
dcd_connect                                       _build/build-bm68rgb_custom_rev1_THusb/dcd_nrf5x.o
                                                  _build/build-bm68rgb_custom_rev1_THusb/usbd.o
dcd_disconnect                                    _build/build-bm68rgb_custom_rev1_THusb/dcd_nrf5x.o
                                                  _build/build-bm68rgb_custom_rev1_THusb/usbd.o
dcd_edpt0_status_complete                         _build/build-bm68rgb_custom_rev1_THusb/usbd_control.o
dcd_edpt_clear_stall                              _build/build-bm68rgb_custom_rev1_THusb/dcd_nrf5x.o
                                                  _build/build-bm68rgb_custom_rev1_THusb/usbd.o
dcd_edpt_close                                    _build/build-bm68rgb_custom_rev1_THusb/dcd_nrf5x.o
                                                  _build/build-bm68rgb_custom_rev1_THusb/usbd.o
dcd_edpt_close_all                                _build/build-bm68rgb_custom_rev1_THusb/dcd_nrf5x.o
                                                  _build/build-bm68rgb_custom_rev1_THusb/usbd.o
dcd_edpt_open                                     _build/build-bm68rgb_custom_rev1_THusb/dcd_nrf5x.o
                                                  _build/build-bm68rgb_custom_rev1_THusb/usbd.o
dcd_edpt_stall                                    _build/build-bm68rgb_custom_rev1_THusb/dcd_nrf5x.o
                                                  _build/build-bm68rgb_custom_rev1_THusb/usbd_control.o
                                                  _build/build-bm68rgb_custom_rev1_THusb/usbd.o
dcd_edpt_xfer                                     _build/build-bm68rgb_custom_rev1_THusb/dcd_nrf5x.o
                                                  _build/build-bm68rgb_custom_rev1_THusb/usbd.o
dcd_edpt_xfer_fifo                                _build/build-bm68rgb_custom_rev1_THusb/usbd.o
dcd_event_bus_reset                               _build/build-bm68rgb_custom_rev1_THusb/usbd.o
                                                  _build/build-bm68rgb_custom_rev1_THusb/dcd_nrf5x.o
dcd_event_bus_signal                              _build/build-bm68rgb_custom_rev1_THusb/usbd.o
                                                  _build/build-bm68rgb_custom_rev1_THusb/dcd_nrf5x.o
dcd_event_handler                                 _build/build-bm68rgb_custom_rev1_THusb/usbd.o
dcd_event_setup_received                          _build/build-bm68rgb_custom_rev1_THusb/usbd.o
                                                  _build/build-bm68rgb_custom_rev1_THusb/dcd_nrf5x.o
dcd_event_xfer_complete                           _build/build-bm68rgb_custom_rev1_THusb/usbd.o
                                                  _build/build-bm68rgb_custom_rev1_THusb/msc_device.o
                                                  _build/build-bm68rgb_custom_rev1_THusb/dcd_nrf5x.o
dcd_init                                          _build/build-bm68rgb_custom_rev1_THusb/dcd_nrf5x.o
                                                  _build/build-bm68rgb_custom_rev1_THusb/usbd.o
dcd_int_disable                                   _build/build-bm68rgb_custom_rev1_THusb/dcd_nrf5x.o
                                                  _build/build-bm68rgb_custom_rev1_THusb/usbd.o
dcd_int_enable                                    _build/build-bm68rgb_custom_rev1_THusb/dcd_nrf5x.o
                                                  _build/build-bm68rgb_custom_rev1_THusb/usbd.o
dcd_int_handler                                   _build/build-bm68rgb_custom_rev1_THusb/dcd_nrf5x.o
                                                  _build/build-bm68rgb_custom_rev1_THusb/usb.o
dcd_remote_wakeup                                 _build/build-bm68rgb_custom_rev1_THusb/dcd_nrf5x.o
                                                  _build/build-bm68rgb_custom_rev1_THusb/usbd.o
dcd_set_address                                   _build/build-bm68rgb_custom_rev1_THusb/dcd_nrf5x.o
                                                  _build/build-bm68rgb_custom_rev1_THusb/usbd.o
desc_configuration_cdc_msc                        _build/build-bm68rgb_custom_rev1_THusb/usb_desc.o
desc_configuration_cdc_only                       _build/build-bm68rgb_custom_rev1_THusb/usb_desc.o
desc_device                                       _build/build-bm68rgb_custom_rev1_THusb/usb_desc.o
dfu_bl_image_swap                                 _build/build-bm68rgb_custom_rev1_THusb/dfu_single_bank.o
                                                  _build/build-bm68rgb_custom_rev1_THusb/bootloader.o
dfu_bl_image_validate                             _build/build-bm68rgb_custom_rev1_THusb/dfu_single_bank.o
                                                  _build/build-bm68rgb_custom_rev1_THusb/bootloader.o
dfu_ble_peer_data_get                             _build/build-bm68rgb_custom_rev1_THusb/dfu_ble_svc.o
                                                  _build/build-bm68rgb_custom_rev1_THusb/dfu_transport_ble.o
dfu_data_pkt_handle                               _build/build-bm68rgb_custom_rev1_THusb/dfu_single_bank.o
                                                  _build/build-bm68rgb_custom_rev1_THusb/dfu_transport_ble.o
                                                  _build/build-bm68rgb_custom_rev1_THusb/dfu_transport_serial.o
dfu_image_activate                                _build/build-bm68rgb_custom_rev1_THusb/dfu_single_bank.o
                                                  _build/build-bm68rgb_custom_rev1_THusb/dfu_transport_ble.o
                                                  _build/build-bm68rgb_custom_rev1_THusb/dfu_transport_serial.o
dfu_image_validate                                _build/build-bm68rgb_custom_rev1_THusb/dfu_single_bank.o
                                                  _build/build-bm68rgb_custom_rev1_THusb/dfu_transport_ble.o
                                                  _build/build-bm68rgb_custom_rev1_THusb/dfu_transport_serial.o
dfu_init                                          _build/build-bm68rgb_custom_rev1_THusb/dfu_single_bank.o
                                                  _build/build-bm68rgb_custom_rev1_THusb/bootloader.o
dfu_init_pkt_complete                             _build/build-bm68rgb_custom_rev1_THusb/dfu_single_bank.o
                                                  _build/build-bm68rgb_custom_rev1_THusb/dfu_transport_ble.o
                                                  _build/build-bm68rgb_custom_rev1_THusb/dfu_transport_serial.o
dfu_init_pkt_handle                               _build/build-bm68rgb_custom_rev1_THusb/dfu_single_bank.o
                                                  _build/build-bm68rgb_custom_rev1_THusb/dfu_transport_ble.o
                                                  _build/build-bm68rgb_custom_rev1_THusb/dfu_transport_serial.o
dfu_init_postvalidate                             _build/build-bm68rgb_custom_rev1_THusb/dfu_init.o
                                                  _build/build-bm68rgb_custom_rev1_THusb/dfu_single_bank.o
dfu_init_prevalidate                              _build/build-bm68rgb_custom_rev1_THusb/dfu_init.o
                                                  _build/build-bm68rgb_custom_rev1_THusb/dfu_single_bank.o
dfu_register_callback                             _build/build-bm68rgb_custom_rev1_THusb/dfu_single_bank.o
                                                  _build/build-bm68rgb_custom_rev1_THusb/dfu_transport_ble.o
                                                  _build/build-bm68rgb_custom_rev1_THusb/dfu_transport_serial.o
dfu_reset                                         _build/build-bm68rgb_custom_rev1_THusb/dfu_single_bank.o
                                                  _build/build-bm68rgb_custom_rev1_THusb/dfu_transport_ble.o
dfu_sd_image_swap                                 _build/build-bm68rgb_custom_rev1_THusb/dfu_single_bank.o
                                                  _build/build-bm68rgb_custom_rev1_THusb/bootloader.o
dfu_sd_image_validate                             _build/build-bm68rgb_custom_rev1_THusb/dfu_single_bank.o
                                                  _build/build-bm68rgb_custom_rev1_THusb/bootloader.o
dfu_start_pkt_handle                              _build/build-bm68rgb_custom_rev1_THusb/dfu_single_bank.o
                                                  _build/build-bm68rgb_custom_rev1_THusb/dfu_transport_ble.o
                                                  _build/build-bm68rgb_custom_rev1_THusb/dfu_transport_serial.o
dfu_startup_packet_received                       _build/build-bm68rgb_custom_rev1_THusb/bootloader.o
                                                  _build/build-bm68rgb_custom_rev1_THusb/dfu_transport_serial.o
dfu_transport_ble_close                           _build/build-bm68rgb_custom_rev1_THusb/dfu_transport_ble.o
                                                  _build/build-bm68rgb_custom_rev1_THusb/bootloader.o
dfu_transport_ble_update_start                    _build/build-bm68rgb_custom_rev1_THusb/dfu_transport_ble.o
                                                  _build/build-bm68rgb_custom_rev1_THusb/bootloader.o
dfu_transport_serial_close                        _build/build-bm68rgb_custom_rev1_THusb/dfu_transport_serial.o
                                                  _build/build-bm68rgb_custom_rev1_THusb/bootloader.o
dfu_transport_serial_update_start                 _build/build-bm68rgb_custom_rev1_THusb/dfu_transport_serial.o
                                                  _build/build-bm68rgb_custom_rev1_THusb/bootloader.o
exit                                              /usr/share/gcc-arm-none-eabi-10-2020-q4-major/bin/../lib/gcc/arm-none-eabi/10.2.1/../../../../arm-none-eabi/lib/thumb/v7e-m+fp/hard/libc.a(lib_a-exit.o)
                                                  /usr/share/gcc-arm-none-eabi-10-2020-q4-major/bin/../lib/gcc/arm-none-eabi/10.2.1/../../../../arm-none-eabi/lib/thumb/v7e-m+fp/hard/crt0.o
flash_nrf5x_flush                                 _build/build-bm68rgb_custom_rev1_THusb/flash_nrf5x.o
                                                  _build/build-bm68rgb_custom_rev1_THusb/ghostfat.o
                                                  _build/build-bm68rgb_custom_rev1_THusb/dfu_single_bank.o
flash_nrf5x_write                                 _build/build-bm68rgb_custom_rev1_THusb/flash_nrf5x.o
                                                  _build/build-bm68rgb_custom_rev1_THusb/ghostfat.o
                                                  _build/build-bm68rgb_custom_rev1_THusb/dfu_single_bank.o
hardware_init_hook                                /usr/share/gcc-arm-none-eabi-10-2020-q4-major/bin/../lib/gcc/arm-none-eabi/10.2.1/../../../../arm-none-eabi/lib/thumb/v7e-m+fp/hard/crt0.o
hci_mem_pool_close                                _build/build-bm68rgb_custom_rev1_THusb/hci_mem_pool.o
                                                  _build/build-bm68rgb_custom_rev1_THusb/hci_transport.o
hci_mem_pool_open                                 _build/build-bm68rgb_custom_rev1_THusb/hci_mem_pool.o
                                                  _build/build-bm68rgb_custom_rev1_THusb/hci_transport.o
                                                  _build/build-bm68rgb_custom_rev1_THusb/dfu_transport_ble.o
hci_mem_pool_rx_consume                           _build/build-bm68rgb_custom_rev1_THusb/hci_mem_pool.o
                                                  _build/build-bm68rgb_custom_rev1_THusb/hci_transport.o
                                                  _build/build-bm68rgb_custom_rev1_THusb/dfu_transport_ble.o
hci_mem_pool_rx_data_size_set                     _build/build-bm68rgb_custom_rev1_THusb/hci_mem_pool.o
                                                  _build/build-bm68rgb_custom_rev1_THusb/hci_transport.o
                                                  _build/build-bm68rgb_custom_rev1_THusb/dfu_transport_ble.o
hci_mem_pool_rx_extract                           _build/build-bm68rgb_custom_rev1_THusb/hci_mem_pool.o
                                                  _build/build-bm68rgb_custom_rev1_THusb/hci_transport.o
                                                  _build/build-bm68rgb_custom_rev1_THusb/dfu_transport_ble.o
hci_mem_pool_rx_produce                           _build/build-bm68rgb_custom_rev1_THusb/hci_mem_pool.o
                                                  _build/build-bm68rgb_custom_rev1_THusb/hci_transport.o
                                                  _build/build-bm68rgb_custom_rev1_THusb/dfu_transport_ble.o
hci_mem_pool_tx_alloc                             _build/build-bm68rgb_custom_rev1_THusb/hci_mem_pool.o
                                                  _build/build-bm68rgb_custom_rev1_THusb/hci_transport.o
hci_mem_pool_tx_free                              _build/build-bm68rgb_custom_rev1_THusb/hci_mem_pool.o
                                                  _build/build-bm68rgb_custom_rev1_THusb/hci_transport.o
hci_slip_close                                    _build/build-bm68rgb_custom_rev1_THusb/hci_slip.o
                                                  _build/build-bm68rgb_custom_rev1_THusb/hci_transport.o
hci_slip_evt_handler_register                     _build/build-bm68rgb_custom_rev1_THusb/hci_slip.o
                                                  _build/build-bm68rgb_custom_rev1_THusb/hci_transport.o
hci_slip_open                                     _build/build-bm68rgb_custom_rev1_THusb/hci_slip.o
                                                  _build/build-bm68rgb_custom_rev1_THusb/hci_transport.o
hci_slip_rx_buffer_register                       _build/build-bm68rgb_custom_rev1_THusb/hci_slip.o
                                                  _build/build-bm68rgb_custom_rev1_THusb/hci_transport.o
hci_slip_write                                    _build/build-bm68rgb_custom_rev1_THusb/hci_slip.o
                                                  _build/build-bm68rgb_custom_rev1_THusb/hci_transport.o
hci_transport_close                               _build/build-bm68rgb_custom_rev1_THusb/hci_transport.o
                                                  _build/build-bm68rgb_custom_rev1_THusb/dfu_transport_serial.o
hci_transport_evt_handler_reg                     _build/build-bm68rgb_custom_rev1_THusb/hci_transport.o
                                                  _build/build-bm68rgb_custom_rev1_THusb/dfu_transport_serial.o
hci_transport_open                                _build/build-bm68rgb_custom_rev1_THusb/hci_transport.o
                                                  _build/build-bm68rgb_custom_rev1_THusb/dfu_transport_serial.o
hci_transport_pkt_write                           _build/build-bm68rgb_custom_rev1_THusb/hci_transport.o
hci_transport_rx_pkt_consume                      _build/build-bm68rgb_custom_rev1_THusb/hci_transport.o
                                                  _build/build-bm68rgb_custom_rev1_THusb/dfu_transport_serial.o
hci_transport_rx_pkt_extract                      _build/build-bm68rgb_custom_rev1_THusb/hci_transport.o
                                                  _build/build-bm68rgb_custom_rev1_THusb/dfu_transport_serial.o
hci_transport_timeout_handle                      _build/build-bm68rgb_custom_rev1_THusb/hci_transport.o
hci_transport_tx_alloc                            _build/build-bm68rgb_custom_rev1_THusb/hci_transport.o
hci_transport_tx_done_register                    _build/build-bm68rgb_custom_rev1_THusb/hci_transport.o
hci_transport_tx_free                             _build/build-bm68rgb_custom_rev1_THusb/hci_transport.o
indexFile                                         _build/build-bm68rgb_custom_rev1_THusb/ghostfat.o
infoUf2File                                       _build/build-bm68rgb_custom_rev1_THusb/ghostfat.o
is_ota                                            _build/build-bm68rgb_custom_rev1_THusb/main.o
                                                  _build/build-bm68rgb_custom_rev1_THusb/dfu_single_bank.o
                                                  _build/build-bm68rgb_custom_rev1_THusb/bootloader.o
led_pwm_duty_cycle                                _build/build-bm68rgb_custom_rev1_THusb/boards.o
led_pwm_init                                      _build/build-bm68rgb_custom_rev1_THusb/boards.o
led_pwm_teardown                                  _build/build-bm68rgb_custom_rev1_THusb/boards.o
led_state                                         _build/build-bm68rgb_custom_rev1_THusb/boards.o
                                                  _build/build-bm68rgb_custom_rev1_THusb/usb.o
                                                  _build/build-bm68rgb_custom_rev1_THusb/msc_uf2.o
                                                  _build/build-bm68rgb_custom_rev1_THusb/dfu_transport_ble.o
                                                  _build/build-bm68rgb_custom_rev1_THusb/dfu_transport_serial.o
                                                  _build/build-bm68rgb_custom_rev1_THusb/main.o
led_tick                                          _build/build-bm68rgb_custom_rev1_THusb/boards.o
m_boot_settings                                   _build/build-bm68rgb_custom_rev1_THusb/bootloader_settings.o
m_mbr_params_page                                 _build/build-bm68rgb_custom_rev1_THusb/bootloader_settings.o
m_uicr_bootloader_start_address                   _build/build-bm68rgb_custom_rev1_THusb/bootloader_settings.o
m_uicr_mbr_params_page_address                    _build/build-bm68rgb_custom_rev1_THusb/bootloader_settings.o
main                                              _build/build-bm68rgb_custom_rev1_THusb/main.o
                                                  /usr/share/gcc-arm-none-eabi-10-2020-q4-major/bin/../lib/gcc/arm-none-eabi/10.2.1/../../../../arm-none-eabi/lib/thumb/v7e-m+fp/hard/crt0.o
memcmp                                            /usr/share/gcc-arm-none-eabi-10-2020-q4-major/bin/../lib/gcc/arm-none-eabi/10.2.1/../../../../arm-none-eabi/lib/thumb/v7e-m+fp/hard/libc_nano.a(lib_a-memcmp.o)
                                                  _build/build-bm68rgb_custom_rev1_THusb/msc_uf2.o
                                                  _build/build-bm68rgb_custom_rev1_THusb/dfu_transport_ble.o
                                                  _build/build-bm68rgb_custom_rev1_THusb/flash_nrf5x.o
memcpy                                            /usr/share/gcc-arm-none-eabi-10-2020-q4-major/bin/../lib/gcc/arm-none-eabi/10.2.1/../../../../arm-none-eabi/lib/thumb/v7e-m+fp/hard/libc_nano.a(lib_a-memcpy-stub.o)
                                                  _build/build-bm68rgb_custom_rev1_THusb/msc_device.o
                                                  _build/build-bm68rgb_custom_rev1_THusb/usbd_control.o
                                                  _build/build-bm68rgb_custom_rev1_THusb/usbd.o
                                                  _build/build-bm68rgb_custom_rev1_THusb/tusb_fifo.o
                                                  _build/build-bm68rgb_custom_rev1_THusb/ghostfat.o
                                                  _build/build-bm68rgb_custom_rev1_THusb/usb_desc.o
                                                  _build/build-bm68rgb_custom_rev1_THusb/msc_uf2.o
                                                  _build/build-bm68rgb_custom_rev1_THusb/app_scheduler.o
                                                  _build/build-bm68rgb_custom_rev1_THusb/dfu_single_bank.o
                                                  _build/build-bm68rgb_custom_rev1_THusb/dfu_transport_ble.o
                                                  _build/build-bm68rgb_custom_rev1_THusb/flash_nrf5x.o
                                                  _build/build-bm68rgb_custom_rev1_THusb/dfu_init.o
                                                  _build/build-bm68rgb_custom_rev1_THusb/dfu_ble_svc.o
memmove                                           /usr/share/gcc-arm-none-eabi-10-2020-q4-major/bin/../lib/gcc/arm-none-eabi/10.2.1/../../../../arm-none-eabi/lib/thumb/v7e-m+fp/hard/libc_nano.a(lib_a-memmove.o)
                                                  _build/build-bm68rgb_custom_rev1_THusb/msc_device.o
memset                                            /usr/share/gcc-arm-none-eabi-10-2020-q4-major/bin/../lib/gcc/arm-none-eabi/10.2.1/../../../../arm-none-eabi/lib/thumb/v7e-m+fp/hard/libc.a(lib_a-memset.o)
                                                  _build/build-bm68rgb_custom_rev1_THusb/msc_device.o
                                                  _build/build-bm68rgb_custom_rev1_THusb/cdc_device.o
                                                  _build/build-bm68rgb_custom_rev1_THusb/usbd_control.o
                                                  _build/build-bm68rgb_custom_rev1_THusb/usbd.o
                                                  _build/build-bm68rgb_custom_rev1_THusb/dcd_nrf5x.o
                                                  _build/build-bm68rgb_custom_rev1_THusb/ghostfat.o
                                                  _build/build-bm68rgb_custom_rev1_THusb/msc_uf2.o
                                                  _build/build-bm68rgb_custom_rev1_THusb/ble_dis.o
                                                  _build/build-bm68rgb_custom_rev1_THusb/ble_dfu.o
                                                  _build/build-bm68rgb_custom_rev1_THusb/dfu_single_bank.o
                                                  _build/build-bm68rgb_custom_rev1_THusb/dfu_transport_ble.o
                                                  _build/build-bm68rgb_custom_rev1_THusb/bootloader.o
                                                  _build/build-bm68rgb_custom_rev1_THusb/main.o
                                                  /usr/share/gcc-arm-none-eabi-10-2020-q4-major/bin/../lib/gcc/arm-none-eabi/10.2.1/../../../../arm-none-eabi/lib/thumb/v7e-m+fp/hard/crt0.o
mscd_control_xfer_cb                              _build/build-bm68rgb_custom_rev1_THusb/msc_device.o
                                                  _build/build-bm68rgb_custom_rev1_THusb/usbd.o
mscd_init                                         _build/build-bm68rgb_custom_rev1_THusb/msc_device.o
                                                  _build/build-bm68rgb_custom_rev1_THusb/usbd.o
mscd_open                                         _build/build-bm68rgb_custom_rev1_THusb/msc_device.o
                                                  _build/build-bm68rgb_custom_rev1_THusb/usbd.o
mscd_reset                                        _build/build-bm68rgb_custom_rev1_THusb/msc_device.o
                                                  _build/build-bm68rgb_custom_rev1_THusb/usbd.o
mscd_xfer_cb                                      _build/build-bm68rgb_custom_rev1_THusb/msc_device.o
                                                  _build/build-bm68rgb_custom_rev1_THusb/usbd.o
nrf_nvic_state                                    _build/build-bm68rgb_custom_rev1_THusb/app_util_platform.o
                                                  _build/build-bm68rgb_custom_rev1_THusb/main.o
nrfx_nvmc_all_erase                               _build/build-bm68rgb_custom_rev1_THusb/nrfx_nvmc.o
nrfx_nvmc_byte_writable_check                     _build/build-bm68rgb_custom_rev1_THusb/nrfx_nvmc.o
nrfx_nvmc_byte_write                              _build/build-bm68rgb_custom_rev1_THusb/nrfx_nvmc.o
nrfx_nvmc_bytes_write                             _build/build-bm68rgb_custom_rev1_THusb/nrfx_nvmc.o
nrfx_nvmc_flash_page_count_get                    _build/build-bm68rgb_custom_rev1_THusb/nrfx_nvmc.o
nrfx_nvmc_flash_page_size_get                     _build/build-bm68rgb_custom_rev1_THusb/nrfx_nvmc.o
nrfx_nvmc_flash_size_get                          _build/build-bm68rgb_custom_rev1_THusb/nrfx_nvmc.o
nrfx_nvmc_page_erase                              _build/build-bm68rgb_custom_rev1_THusb/nrfx_nvmc.o
                                                  _build/build-bm68rgb_custom_rev1_THusb/dfu_single_bank.o
                                                  _build/build-bm68rgb_custom_rev1_THusb/bootloader.o
                                                  _build/build-bm68rgb_custom_rev1_THusb/flash_nrf5x.o
nrfx_nvmc_page_partial_erase_continue             _build/build-bm68rgb_custom_rev1_THusb/nrfx_nvmc.o
nrfx_nvmc_page_partial_erase_init                 _build/build-bm68rgb_custom_rev1_THusb/nrfx_nvmc.o
nrfx_nvmc_uicr_erase                              _build/build-bm68rgb_custom_rev1_THusb/nrfx_nvmc.o
nrfx_nvmc_word_writable_check                     _build/build-bm68rgb_custom_rev1_THusb/nrfx_nvmc.o
nrfx_nvmc_word_write                              _build/build-bm68rgb_custom_rev1_THusb/nrfx_nvmc.o
                                                  _build/build-bm68rgb_custom_rev1_THusb/bootloader_settings.o
nrfx_nvmc_words_write                             _build/build-bm68rgb_custom_rev1_THusb/nrfx_nvmc.o
                                                  _build/build-bm68rgb_custom_rev1_THusb/bootloader.o
                                                  _build/build-bm68rgb_custom_rev1_THusb/flash_nrf5x.o
nrfx_power_init                                   _build/build-bm68rgb_custom_rev1_THusb/nrfx_power.o
                                                  _build/build-bm68rgb_custom_rev1_THusb/usb.o
nrfx_power_irq_enabled                            _build/build-bm68rgb_custom_rev1_THusb/nrfx_power.o
nrfx_power_pof_disable                            _build/build-bm68rgb_custom_rev1_THusb/nrfx_power.o
nrfx_power_pof_enable                             _build/build-bm68rgb_custom_rev1_THusb/nrfx_power.o
nrfx_power_pof_handler_get                        _build/build-bm68rgb_custom_rev1_THusb/nrfx_power.o
nrfx_power_pof_init                               _build/build-bm68rgb_custom_rev1_THusb/nrfx_power.o
nrfx_power_pof_uninit                             _build/build-bm68rgb_custom_rev1_THusb/nrfx_power.o
nrfx_power_sleepevt_disable                       _build/build-bm68rgb_custom_rev1_THusb/nrfx_power.o
nrfx_power_sleepevt_enable                        _build/build-bm68rgb_custom_rev1_THusb/nrfx_power.o
nrfx_power_sleepevt_init                          _build/build-bm68rgb_custom_rev1_THusb/nrfx_power.o
nrfx_power_sleepevt_uninit                        _build/build-bm68rgb_custom_rev1_THusb/nrfx_power.o
nrfx_power_uninit                                 _build/build-bm68rgb_custom_rev1_THusb/nrfx_power.o
nrfx_power_usb_handler_get                        _build/build-bm68rgb_custom_rev1_THusb/nrfx_power.o
nrfx_power_usbevt_disable                         _build/build-bm68rgb_custom_rev1_THusb/nrfx_power.o
nrfx_power_usbevt_enable                          _build/build-bm68rgb_custom_rev1_THusb/nrfx_power.o
                                                  _build/build-bm68rgb_custom_rev1_THusb/usb.o
nrfx_power_usbevt_init                            _build/build-bm68rgb_custom_rev1_THusb/nrfx_power.o
                                                  _build/build-bm68rgb_custom_rev1_THusb/usb.o
nrfx_power_usbevt_uninit                          _build/build-bm68rgb_custom_rev1_THusb/nrfx_power.o
offset_calculate                                  _build/build-bm68rgb_custom_rev1_THusb/dfu_single_bank.o
padded_memcpy                                     _build/build-bm68rgb_custom_rev1_THusb/ghostfat.o
privilege_level_get                               _build/build-bm68rgb_custom_rev1_THusb/app_util_platform.o
proc_ble                                          _build/build-bm68rgb_custom_rev1_THusb/main.o
proc_sd_task                                      _build/build-bm68rgb_custom_rev1_THusb/main.o
proc_soc                                          _build/build-bm68rgb_custom_rev1_THusb/main.o
pstorage_block_identifier_get                     _build/build-bm68rgb_custom_rev1_THusb/pstorage_raw.o
pstorage_clear                                    _build/build-bm68rgb_custom_rev1_THusb/pstorage_raw.o
                                                  _build/build-bm68rgb_custom_rev1_THusb/dfu_single_bank.o
                                                  _build/build-bm68rgb_custom_rev1_THusb/bootloader.o
pstorage_init                                     _build/build-bm68rgb_custom_rev1_THusb/pstorage_raw.o
                                                  _build/build-bm68rgb_custom_rev1_THusb/bootloader.o
pstorage_register                                 _build/build-bm68rgb_custom_rev1_THusb/pstorage_raw.o
                                                  _build/build-bm68rgb_custom_rev1_THusb/dfu_single_bank.o
                                                  _build/build-bm68rgb_custom_rev1_THusb/bootloader.o
pstorage_store                                    _build/build-bm68rgb_custom_rev1_THusb/pstorage_raw.o
                                                  _build/build-bm68rgb_custom_rev1_THusb/dfu_single_bank.o
                                                  _build/build-bm68rgb_custom_rev1_THusb/bootloader.o
pstorage_sys_event_handler                        _build/build-bm68rgb_custom_rev1_THusb/pstorage_raw.o
                                                  _build/build-bm68rgb_custom_rev1_THusb/main.o
pwm_teardown                                      _build/build-bm68rgb_custom_rev1_THusb/boards.o
rdwr10_validate_cmd                               _build/build-bm68rgb_custom_rev1_THusb/msc_device.o
read_block                                        _build/build-bm68rgb_custom_rev1_THusb/ghostfat.o
                                                  _build/build-bm68rgb_custom_rev1_THusb/msc_uf2.o
rpc_transport_event_handler                       _build/build-bm68rgb_custom_rev1_THusb/dfu_transport_serial.o
send_tx_byte                                      _build/build-bm68rgb_custom_rev1_THusb/hci_slip.o
slip_event_handle                                 _build/build-bm68rgb_custom_rev1_THusb/hci_transport.o
software_init_hook                                /usr/share/gcc-arm-none-eabi-10-2020-q4-major/bin/../lib/gcc/arm-none-eabi/10.2.1/../../../../arm-none-eabi/lib/thumb/v7e-m+fp/hard/crt0.o
strcat                                            /usr/share/gcc-arm-none-eabi-10-2020-q4-major/bin/../lib/gcc/arm-none-eabi/10.2.1/../../../../arm-none-eabi/lib/thumb/v7e-m+fp/hard/libc_nano.a(lib_a-strcat.o)
                                                  _build/build-bm68rgb_custom_rev1_THusb/ghostfat.o
string_desc_arr                                   _build/build-bm68rgb_custom_rev1_THusb/usb_desc.o
strlen                                            /usr/share/gcc-arm-none-eabi-10-2020-q4-major/bin/../lib/gcc/arm-none-eabi/10.2.1/../../../../arm-none-eabi/lib/thumb/v7e-m+fp/hard/libc_nano.a(lib_a-strlen.o)
                                                  _build/build-bm68rgb_custom_rev1_THusb/ghostfat.o
                                                  _build/build-bm68rgb_custom_rev1_THusb/usb_desc.o
                                                  _build/build-bm68rgb_custom_rev1_THusb/msc_uf2.o
                                                  _build/build-bm68rgb_custom_rev1_THusb/dfu_transport_ble.o
tu_desc_get_interface_total_len                   _build/build-bm68rgb_custom_rev1_THusb/tusb.o
tu_edpt_bind_driver                               _build/build-bm68rgb_custom_rev1_THusb/tusb.o
                                                  _build/build-bm68rgb_custom_rev1_THusb/usbd.o
tu_edpt_validate                                  _build/build-bm68rgb_custom_rev1_THusb/tusb.o
                                                  _build/build-bm68rgb_custom_rev1_THusb/usbd.o
tu_fifo_advance_read_pointer                      _build/build-bm68rgb_custom_rev1_THusb/tusb_fifo.o
tu_fifo_advance_write_pointer                     _build/build-bm68rgb_custom_rev1_THusb/tusb_fifo.o
tu_fifo_clear                                     _build/build-bm68rgb_custom_rev1_THusb/tusb_fifo.o
                                                  _build/build-bm68rgb_custom_rev1_THusb/cdc_device.o
                                                  _build/build-bm68rgb_custom_rev1_THusb/usbd.o
tu_fifo_config                                    _build/build-bm68rgb_custom_rev1_THusb/tusb_fifo.o
                                                  _build/build-bm68rgb_custom_rev1_THusb/cdc_device.o
tu_fifo_correct_read_pointer                      _build/build-bm68rgb_custom_rev1_THusb/tusb_fifo.o
tu_fifo_count                                     _build/build-bm68rgb_custom_rev1_THusb/tusb_fifo.o
                                                  _build/build-bm68rgb_custom_rev1_THusb/cdc_device.o
tu_fifo_empty                                     _build/build-bm68rgb_custom_rev1_THusb/tusb_fifo.o
                                                  _build/build-bm68rgb_custom_rev1_THusb/cdc_device.o
                                                  _build/build-bm68rgb_custom_rev1_THusb/usbd.o
tu_fifo_full                                      _build/build-bm68rgb_custom_rev1_THusb/tusb_fifo.o
tu_fifo_get_read_info                             _build/build-bm68rgb_custom_rev1_THusb/tusb_fifo.o
tu_fifo_get_write_info                            _build/build-bm68rgb_custom_rev1_THusb/tusb_fifo.o
tu_fifo_overflowed                                _build/build-bm68rgb_custom_rev1_THusb/tusb_fifo.o
tu_fifo_peek                                      _build/build-bm68rgb_custom_rev1_THusb/tusb_fifo.o
                                                  _build/build-bm68rgb_custom_rev1_THusb/cdc_device.o
tu_fifo_peek_n                                    _build/build-bm68rgb_custom_rev1_THusb/tusb_fifo.o
tu_fifo_read                                      _build/build-bm68rgb_custom_rev1_THusb/tusb_fifo.o
                                                  _build/build-bm68rgb_custom_rev1_THusb/usbd.o
tu_fifo_read_n                                    _build/build-bm68rgb_custom_rev1_THusb/tusb_fifo.o
                                                  _build/build-bm68rgb_custom_rev1_THusb/cdc_device.o
tu_fifo_read_n_const_addr_full_words              _build/build-bm68rgb_custom_rev1_THusb/tusb_fifo.o
tu_fifo_remaining                                 _build/build-bm68rgb_custom_rev1_THusb/tusb_fifo.o
                                                  _build/build-bm68rgb_custom_rev1_THusb/cdc_device.o
tu_fifo_set_overwritable                          _build/build-bm68rgb_custom_rev1_THusb/tusb_fifo.o
                                                  _build/build-bm68rgb_custom_rev1_THusb/cdc_device.o
tu_fifo_write                                     _build/build-bm68rgb_custom_rev1_THusb/tusb_fifo.o
                                                  _build/build-bm68rgb_custom_rev1_THusb/usbd.o
tu_fifo_write_n                                   _build/build-bm68rgb_custom_rev1_THusb/tusb_fifo.o
                                                  _build/build-bm68rgb_custom_rev1_THusb/cdc_device.o
tu_fifo_write_n_const_addr_full_words             _build/build-bm68rgb_custom_rev1_THusb/tusb_fifo.o
tud_cdc_line_coding_cb                            _build/build-bm68rgb_custom_rev1_THusb/cdc_device.o
tud_cdc_line_state_cb                             _build/build-bm68rgb_custom_rev1_THusb/cdc_device.o
tud_cdc_n_available                               _build/build-bm68rgb_custom_rev1_THusb/cdc_device.o
                                                  _build/build-bm68rgb_custom_rev1_THusb/hci_slip.o
tud_cdc_n_connected                               _build/build-bm68rgb_custom_rev1_THusb/cdc_device.o
tud_cdc_n_get_line_coding                         _build/build-bm68rgb_custom_rev1_THusb/cdc_device.o
tud_cdc_n_get_line_state                          _build/build-bm68rgb_custom_rev1_THusb/cdc_device.o
tud_cdc_n_peek                                    _build/build-bm68rgb_custom_rev1_THusb/cdc_device.o
tud_cdc_n_read                                    _build/build-bm68rgb_custom_rev1_THusb/cdc_device.o
                                                  _build/build-bm68rgb_custom_rev1_THusb/hci_slip.o
tud_cdc_n_read_flush                              _build/build-bm68rgb_custom_rev1_THusb/cdc_device.o
tud_cdc_n_set_wanted_char                         _build/build-bm68rgb_custom_rev1_THusb/cdc_device.o
tud_cdc_n_write                                   _build/build-bm68rgb_custom_rev1_THusb/cdc_device.o
                                                  _build/build-bm68rgb_custom_rev1_THusb/hci_slip.o
tud_cdc_n_write_available                         _build/build-bm68rgb_custom_rev1_THusb/cdc_device.o
tud_cdc_n_write_clear                             _build/build-bm68rgb_custom_rev1_THusb/cdc_device.o
tud_cdc_n_write_flush                             _build/build-bm68rgb_custom_rev1_THusb/cdc_device.o
                                                  _build/build-bm68rgb_custom_rev1_THusb/bootloader.o
tud_cdc_rx_cb                                     _build/build-bm68rgb_custom_rev1_THusb/hci_slip.o
                                                  _build/build-bm68rgb_custom_rev1_THusb/cdc_device.o
tud_cdc_rx_wanted_cb                              _build/build-bm68rgb_custom_rev1_THusb/cdc_device.o
tud_cdc_send_break_cb                             _build/build-bm68rgb_custom_rev1_THusb/cdc_device.o
tud_cdc_tx_complete_cb                            _build/build-bm68rgb_custom_rev1_THusb/cdc_device.o
tud_connect                                       _build/build-bm68rgb_custom_rev1_THusb/usbd.o
tud_connected                                     _build/build-bm68rgb_custom_rev1_THusb/usbd.o
tud_control_status                                _build/build-bm68rgb_custom_rev1_THusb/usbd_control.o
                                                  _build/build-bm68rgb_custom_rev1_THusb/msc_device.o
                                                  _build/build-bm68rgb_custom_rev1_THusb/cdc_device.o
                                                  _build/build-bm68rgb_custom_rev1_THusb/usbd.o
tud_control_xfer                                  _build/build-bm68rgb_custom_rev1_THusb/usbd_control.o
                                                  _build/build-bm68rgb_custom_rev1_THusb/msc_device.o
                                                  _build/build-bm68rgb_custom_rev1_THusb/cdc_device.o
                                                  _build/build-bm68rgb_custom_rev1_THusb/usbd.o
tud_descriptor_bos_cb                             _build/build-bm68rgb_custom_rev1_THusb/usbd.o
tud_descriptor_configuration_cb                   _build/build-bm68rgb_custom_rev1_THusb/usb_desc.o
                                                  _build/build-bm68rgb_custom_rev1_THusb/usbd.o
tud_descriptor_device_cb                          _build/build-bm68rgb_custom_rev1_THusb/usb_desc.o
                                                  _build/build-bm68rgb_custom_rev1_THusb/usbd.o
tud_descriptor_device_qualifier_cb                _build/build-bm68rgb_custom_rev1_THusb/usbd.o
tud_descriptor_other_speed_configuration_cb       _build/build-bm68rgb_custom_rev1_THusb/usbd.o
tud_descriptor_string_cb                          _build/build-bm68rgb_custom_rev1_THusb/usb_desc.o
                                                  _build/build-bm68rgb_custom_rev1_THusb/usbd.o
tud_disconnect                                    _build/build-bm68rgb_custom_rev1_THusb/usbd.o
tud_init                                          _build/build-bm68rgb_custom_rev1_THusb/usbd.o
                                                  _build/build-bm68rgb_custom_rev1_THusb/tusb.o
tud_inited                                        _build/build-bm68rgb_custom_rev1_THusb/usbd.o
                                                  _build/build-bm68rgb_custom_rev1_THusb/tusb.o
tud_mount_cb                                      _build/build-bm68rgb_custom_rev1_THusb/usb.o
                                                  _build/build-bm68rgb_custom_rev1_THusb/usbd.o
tud_mounted                                       _build/build-bm68rgb_custom_rev1_THusb/usbd.o
                                                  _build/build-bm68rgb_custom_rev1_THusb/cdc_device.o
                                                  _build/build-bm68rgb_custom_rev1_THusb/bootloader.o
tud_msc_capacity_cb                               _build/build-bm68rgb_custom_rev1_THusb/msc_uf2.o
                                                  _build/build-bm68rgb_custom_rev1_THusb/msc_device.o
tud_msc_get_maxlun_cb                             _build/build-bm68rgb_custom_rev1_THusb/msc_device.o
tud_msc_inquiry_cb                                _build/build-bm68rgb_custom_rev1_THusb/msc_uf2.o
                                                  _build/build-bm68rgb_custom_rev1_THusb/msc_device.o
tud_msc_is_writable_cb                            _build/build-bm68rgb_custom_rev1_THusb/msc_device.o
tud_msc_read10_cb                                 _build/build-bm68rgb_custom_rev1_THusb/msc_uf2.o
                                                  _build/build-bm68rgb_custom_rev1_THusb/msc_device.o
tud_msc_read10_complete_cb                        _build/build-bm68rgb_custom_rev1_THusb/msc_device.o
tud_msc_scsi_cb                                   _build/build-bm68rgb_custom_rev1_THusb/msc_uf2.o
                                                  _build/build-bm68rgb_custom_rev1_THusb/msc_device.o
tud_msc_scsi_complete_cb                          _build/build-bm68rgb_custom_rev1_THusb/msc_device.o
tud_msc_set_sense                                 _build/build-bm68rgb_custom_rev1_THusb/msc_device.o
                                                  _build/build-bm68rgb_custom_rev1_THusb/msc_uf2.o
tud_msc_start_stop_cb                             _build/build-bm68rgb_custom_rev1_THusb/msc_uf2.o
                                                  _build/build-bm68rgb_custom_rev1_THusb/msc_device.o
tud_msc_test_unit_ready_cb                        _build/build-bm68rgb_custom_rev1_THusb/msc_uf2.o
                                                  _build/build-bm68rgb_custom_rev1_THusb/msc_device.o
tud_msc_write10_cb                                _build/build-bm68rgb_custom_rev1_THusb/msc_uf2.o
                                                  _build/build-bm68rgb_custom_rev1_THusb/msc_device.o
tud_msc_write10_complete_cb                       _build/build-bm68rgb_custom_rev1_THusb/msc_uf2.o
                                                  _build/build-bm68rgb_custom_rev1_THusb/msc_device.o
tud_remote_wakeup                                 _build/build-bm68rgb_custom_rev1_THusb/usbd.o
tud_resume_cb                                     _build/build-bm68rgb_custom_rev1_THusb/usbd.o
tud_speed_get                                     _build/build-bm68rgb_custom_rev1_THusb/usbd.o
tud_suspend_cb                                    _build/build-bm68rgb_custom_rev1_THusb/usbd.o
tud_suspended                                     _build/build-bm68rgb_custom_rev1_THusb/usbd.o
                                                  _build/build-bm68rgb_custom_rev1_THusb/cdc_device.o
tud_task                                          _build/build-bm68rgb_custom_rev1_THusb/usbd.o
                                                  _build/build-bm68rgb_custom_rev1_THusb/bootloader.o
tud_task_event_ready                              _build/build-bm68rgb_custom_rev1_THusb/usbd.o
tud_umount_cb                                     _build/build-bm68rgb_custom_rev1_THusb/usb.o
                                                  _build/build-bm68rgb_custom_rev1_THusb/usbd.o
tud_vendor_control_xfer_cb                        _build/build-bm68rgb_custom_rev1_THusb/usbd.o
tusb_hal_nrf_power_event                          _build/build-bm68rgb_custom_rev1_THusb/dcd_nrf5x.o
                                                  _build/build-bm68rgb_custom_rev1_THusb/usb.o
                                                  _build/build-bm68rgb_custom_rev1_THusb/main.o
tusb_init                                         _build/build-bm68rgb_custom_rev1_THusb/tusb.o
                                                  _build/build-bm68rgb_custom_rev1_THusb/usb.o
tusb_inited                                       _build/build-bm68rgb_custom_rev1_THusb/tusb.o
                                                  _build/build-bm68rgb_custom_rev1_THusb/usbd.o
                                                  _build/build-bm68rgb_custom_rev1_THusb/bootloader.o
uf2_init                                          _build/build-bm68rgb_custom_rev1_THusb/ghostfat.o
                                                  _build/build-bm68rgb_custom_rev1_THusb/usb.o
usb_desc_init                                     _build/build-bm68rgb_custom_rev1_THusb/usb_desc.o
                                                  _build/build-bm68rgb_custom_rev1_THusb/usb.o
usb_init                                          _build/build-bm68rgb_custom_rev1_THusb/usb.o
                                                  _build/build-bm68rgb_custom_rev1_THusb/main.o
usb_teardown                                      _build/build-bm68rgb_custom_rev1_THusb/usb.o
                                                  _build/build-bm68rgb_custom_rev1_THusb/main.o
usbd_app_driver_get_cb                            _build/build-bm68rgb_custom_rev1_THusb/usbd.o
usbd_control_reset                                _build/build-bm68rgb_custom_rev1_THusb/usbd_control.o
                                                  _build/build-bm68rgb_custom_rev1_THusb/usbd.o
usbd_control_set_complete_callback                _build/build-bm68rgb_custom_rev1_THusb/usbd_control.o
                                                  _build/build-bm68rgb_custom_rev1_THusb/usbd.o
usbd_control_set_request                          _build/build-bm68rgb_custom_rev1_THusb/usbd_control.o
                                                  _build/build-bm68rgb_custom_rev1_THusb/usbd.o
usbd_control_xfer_cb                              _build/build-bm68rgb_custom_rev1_THusb/usbd_control.o
                                                  _build/build-bm68rgb_custom_rev1_THusb/usbd.o
usbd_defer_func                                   _build/build-bm68rgb_custom_rev1_THusb/usbd.o
                                                  _build/build-bm68rgb_custom_rev1_THusb/dcd_nrf5x.o
usbd_edpt_busy                                    _build/build-bm68rgb_custom_rev1_THusb/usbd.o
                                                  _build/build-bm68rgb_custom_rev1_THusb/msc_device.o
usbd_edpt_claim                                   _build/build-bm68rgb_custom_rev1_THusb/usbd.o
                                                  _build/build-bm68rgb_custom_rev1_THusb/cdc_device.o
usbd_edpt_clear_stall                             _build/build-bm68rgb_custom_rev1_THusb/usbd.o
usbd_edpt_close                                   _build/build-bm68rgb_custom_rev1_THusb/usbd.o
usbd_edpt_open                                    _build/build-bm68rgb_custom_rev1_THusb/usbd.o
                                                  _build/build-bm68rgb_custom_rev1_THusb/cdc_device.o
usbd_edpt_release                                 _build/build-bm68rgb_custom_rev1_THusb/usbd.o
                                                  _build/build-bm68rgb_custom_rev1_THusb/cdc_device.o
usbd_edpt_stall                                   _build/build-bm68rgb_custom_rev1_THusb/usbd.o
                                                  _build/build-bm68rgb_custom_rev1_THusb/msc_device.o
usbd_edpt_stalled                                 _build/build-bm68rgb_custom_rev1_THusb/usbd.o
                                                  _build/build-bm68rgb_custom_rev1_THusb/msc_device.o
usbd_edpt_xfer                                    _build/build-bm68rgb_custom_rev1_THusb/usbd.o
                                                  _build/build-bm68rgb_custom_rev1_THusb/msc_device.o
                                                  _build/build-bm68rgb_custom_rev1_THusb/cdc_device.o
                                                  _build/build-bm68rgb_custom_rev1_THusb/usbd_control.o
usbd_edpt_xfer_fifo                               _build/build-bm68rgb_custom_rev1_THusb/usbd.o
usbd_open_edpt_pair                               _build/build-bm68rgb_custom_rev1_THusb/usbd.o
                                                  _build/build-bm68rgb_custom_rev1_THusb/msc_device.o
                                                  _build/build-bm68rgb_custom_rev1_THusb/cdc_device.o
utoa                                              /usr/share/gcc-arm-none-eabi-10-2020-q4-major/bin/../lib/gcc/arm-none-eabi/10.2.1/../../../../arm-none-eabi/lib/thumb/v7e-m+fp/hard/libc_nano.a(lib_a-utoa.o)
                                                  _build/build-bm68rgb_custom_rev1_THusb/ghostfat.o
write_block                                       _build/build-bm68rgb_custom_rev1_THusb/ghostfat.o
                                                  _build/build-bm68rgb_custom_rev1_THusb/msc_uf2.o
